
LPC1768/RobLip6.elf:     file format elf32-littlearm
architecture: arm, flags 0x00000112:
EXEC_P, HAS_SYMS, D_PAGED
start address 0x000038ed


Disassembly of section .text:

00000000 <__isr_vector>:
       0:	10008000 	.word	0x10008000
       4:	000038ed 	.word	0x000038ed
       8:	0000391d 	.word	0x0000391d
       c:	0000391f 	.word	0x0000391f
      10:	00003921 	.word	0x00003921
      14:	00003923 	.word	0x00003923
      18:	00003925 	.word	0x00003925
	...
      2c:	00001ce1 	.word	0x00001ce1
      30:	00003929 	.word	0x00003929
      34:	00000000 	.word	0x00000000
      38:	00001d4b 	.word	0x00001d4b
      3c:	00001d81 	.word	0x00001d81
      40:	0000392f 	.word	0x0000392f
      44:	0000392f 	.word	0x0000392f
      48:	0000392f 	.word	0x0000392f
      4c:	0000392f 	.word	0x0000392f
      50:	0000392f 	.word	0x0000392f
      54:	0000392f 	.word	0x0000392f
      58:	0000392f 	.word	0x0000392f
      5c:	0000392f 	.word	0x0000392f
      60:	0000392f 	.word	0x0000392f
      64:	0000392f 	.word	0x0000392f
      68:	0000392f 	.word	0x0000392f
      6c:	0000392f 	.word	0x0000392f
      70:	0000392f 	.word	0x0000392f
      74:	0000392f 	.word	0x0000392f
      78:	0000392f 	.word	0x0000392f
      7c:	0000392f 	.word	0x0000392f
      80:	0000392f 	.word	0x0000392f
      84:	0000392f 	.word	0x0000392f
      88:	0000392f 	.word	0x0000392f
      8c:	0000392f 	.word	0x0000392f
      90:	0000392f 	.word	0x0000392f
      94:	0000392f 	.word	0x0000392f
      98:	0000392f 	.word	0x0000392f
      9c:	0000392f 	.word	0x0000392f
      a0:	0000392f 	.word	0x0000392f
      a4:	0000392f 	.word	0x0000392f
      a8:	0000392f 	.word	0x0000392f
      ac:	0000392f 	.word	0x0000392f
      b0:	0000392f 	.word	0x0000392f
      b4:	0000392f 	.word	0x0000392f
      b8:	0000392f 	.word	0x0000392f
      bc:	0000392f 	.word	0x0000392f
      c0:	0000392f 	.word	0x0000392f
      c4:	0000392f 	.word	0x0000392f
      c8:	0000392f 	.word	0x0000392f

000000cc <__do_global_dtors_aux>:
      cc:	b510      	push	{r4, lr}
      ce:	4c05      	ldr	r4, [pc, #20]	; (e4 <__do_global_dtors_aux+0x18>)
      d0:	7823      	ldrb	r3, [r4, #0]
      d2:	b933      	cbnz	r3, e2 <__do_global_dtors_aux+0x16>
      d4:	4b04      	ldr	r3, [pc, #16]	; (e8 <__do_global_dtors_aux+0x1c>)
      d6:	b113      	cbz	r3, de <__do_global_dtors_aux+0x12>
      d8:	4804      	ldr	r0, [pc, #16]	; (ec <__do_global_dtors_aux+0x20>)
      da:	f3af 8000 	nop.w
      de:	2301      	movs	r3, #1
      e0:	7023      	strb	r3, [r4, #0]
      e2:	bd10      	pop	{r4, pc}
      e4:	100001f4 	.word	0x100001f4
      e8:	00000000 	.word	0x00000000
      ec:	00007304 	.word	0x00007304

000000f0 <frame_dummy>:
      f0:	4b08      	ldr	r3, [pc, #32]	; (114 <frame_dummy+0x24>)
      f2:	b510      	push	{r4, lr}
      f4:	b11b      	cbz	r3, fe <frame_dummy+0xe>
      f6:	4808      	ldr	r0, [pc, #32]	; (118 <frame_dummy+0x28>)
      f8:	4908      	ldr	r1, [pc, #32]	; (11c <frame_dummy+0x2c>)
      fa:	f3af 8000 	nop.w
      fe:	4808      	ldr	r0, [pc, #32]	; (120 <frame_dummy+0x30>)
     100:	6803      	ldr	r3, [r0, #0]
     102:	b903      	cbnz	r3, 106 <frame_dummy+0x16>
     104:	bd10      	pop	{r4, pc}
     106:	4b07      	ldr	r3, [pc, #28]	; (124 <frame_dummy+0x34>)
     108:	2b00      	cmp	r3, #0
     10a:	d0fb      	beq.n	104 <frame_dummy+0x14>
     10c:	e8bd 4010 	ldmia.w	sp!, {r4, lr}
     110:	4718      	bx	r3
     112:	bf00      	nop
     114:	00000000 	.word	0x00000000
     118:	00007304 	.word	0x00007304
     11c:	100001f8 	.word	0x100001f8
     120:	100001f4 	.word	0x100001f4
     124:	00000000 	.word	0x00000000

00000128 <LidarLitev2::LidarLitev2(PinName, PinName, bool)>:
     128:	b538      	push	{r3, r4, r5, lr}
     12a:	4604      	mov	r4, r0
     12c:	461d      	mov	r5, r3
     12e:	f003 f91f 	bl	3370 <mbed::I2C::I2C(PinName, PinName)>
     132:	4620      	mov	r0, r4
     134:	b93d      	cbnz	r5, 146 <LidarLitev2::LidarLitev2(PinName, PinName, bool)+0x1e>
     136:	4908      	ldr	r1, [pc, #32]	; (158 <LidarLitev2::LidarLitev2(PinName, PinName, bool)+0x30>)
     138:	f003 f92a 	bl	3390 <mbed::I2C::frequency(int)>
     13c:	4807      	ldr	r0, [pc, #28]	; (15c <LidarLitev2::LidarLitev2(PinName, PinName, bool)+0x34>)
     13e:	f001 ffd1 	bl	20e4 <wait>
     142:	4620      	mov	r0, r4
     144:	bd38      	pop	{r3, r4, r5, pc}
     146:	4906      	ldr	r1, [pc, #24]	; (160 <LidarLitev2::LidarLitev2(PinName, PinName, bool)+0x38>)
     148:	f003 f922 	bl	3390 <mbed::I2C::frequency(int)>
     14c:	4803      	ldr	r0, [pc, #12]	; (15c <LidarLitev2::LidarLitev2(PinName, PinName, bool)+0x34>)
     14e:	f001 ffc9 	bl	20e4 <wait>
     152:	4620      	mov	r0, r4
     154:	bd38      	pop	{r3, r4, r5, pc}
     156:	bf00      	nop
     158:	000186a0 	.word	0x000186a0
     15c:	3e4ccccd 	.word	0x3e4ccccd
     160:	00061a80 	.word	0x00061a80

00000164 <LidarLitev2::configure(int, int)>:
     164:	b5f0      	push	{r4, r5, r6, r7, lr}
     166:	2300      	movs	r3, #0
     168:	b085      	sub	sp, #20
     16a:	2404      	movs	r4, #4
     16c:	4606      	mov	r6, r0
     16e:	4617      	mov	r7, r2
     170:	f88d 3008 	strb.w	r3, [sp, #8]
     174:	f88d 3009 	strb.w	r3, [sp, #9]
     178:	f88d 300d 	strb.w	r3, [sp, #13]
     17c:	f88d 400c 	strb.w	r4, [sp, #12]
     180:	b181      	cbz	r1, 1a4 <LidarLitev2::configure(int, int)+0x40>
     182:	2901      	cmp	r1, #1
     184:	d10c      	bne.n	1a0 <LidarLitev2::configure(int, int)+0x3c>
     186:	461d      	mov	r5, r3
     188:	4c0e      	ldr	r4, [pc, #56]	; (1c4 <LidarLitev2::configure(int, int)+0x60>)
     18a:	6021      	str	r1, [r4, #0]
     18c:	9500      	str	r5, [sp, #0]
     18e:	4630      	mov	r0, r6
     190:	4639      	mov	r1, r7
     192:	aa03      	add	r2, sp, #12
     194:	2302      	movs	r3, #2
     196:	f003 f913 	bl	33c0 <mbed::I2C::write(int, char const*, int, bool)>
     19a:	6020      	str	r0, [r4, #0]
     19c:	2800      	cmp	r0, #0
     19e:	d1f5      	bne.n	18c <LidarLitev2::configure(int, int)+0x28>
     1a0:	b005      	add	sp, #20
     1a2:	bdf0      	pop	{r4, r5, r6, r7, pc}
     1a4:	460d      	mov	r5, r1
     1a6:	4c07      	ldr	r4, [pc, #28]	; (1c4 <LidarLitev2::configure(int, int)+0x60>)
     1a8:	2301      	movs	r3, #1
     1aa:	6023      	str	r3, [r4, #0]
     1ac:	9500      	str	r5, [sp, #0]
     1ae:	4630      	mov	r0, r6
     1b0:	4639      	mov	r1, r7
     1b2:	aa02      	add	r2, sp, #8
     1b4:	2302      	movs	r3, #2
     1b6:	f003 f903 	bl	33c0 <mbed::I2C::write(int, char const*, int, bool)>
     1ba:	6020      	str	r0, [r4, #0]
     1bc:	2800      	cmp	r0, #0
     1be:	d1f5      	bne.n	1ac <LidarLitev2::configure(int, int)+0x48>
     1c0:	b005      	add	sp, #20
     1c2:	bdf0      	pop	{r4, r5, r6, r7, pc}
     1c4:	10000210 	.word	0x10000210

000001c8 <LidarLitev2::distance(bool, bool, int)>:
     1c8:	e92d 41f0 	stmdb	sp!, {r4, r5, r6, r7, r8, lr}
     1cc:	2204      	movs	r2, #4
     1ce:	b086      	sub	sp, #24
     1d0:	2400      	movs	r4, #0
     1d2:	4606      	mov	r6, r0
     1d4:	461f      	mov	r7, r3
     1d6:	f88d 4010 	strb.w	r4, [sp, #16]
     1da:	f88d 2011 	strb.w	r2, [sp, #17]
     1de:	4d20      	ldr	r5, [pc, #128]	; (260 <LidarLitev2::distance(bool, bool, int)+0x98>)
     1e0:	2900      	cmp	r1, #0
     1e2:	d139      	bne.n	258 <LidarLitev2::distance(bool, bool, int)+0x90>
     1e4:	2201      	movs	r2, #1
     1e6:	2303      	movs	r3, #3
     1e8:	602a      	str	r2, [r5, #0]
     1ea:	f88d 3011 	strb.w	r3, [sp, #17]
     1ee:	2400      	movs	r4, #0
     1f0:	2302      	movs	r3, #2
     1f2:	9400      	str	r4, [sp, #0]
     1f4:	4630      	mov	r0, r6
     1f6:	4639      	mov	r1, r7
     1f8:	aa04      	add	r2, sp, #16
     1fa:	f003 f8e1 	bl	33c0 <mbed::I2C::write(int, char const*, int, bool)>
     1fe:	4b18      	ldr	r3, [pc, #96]	; (260 <LidarLitev2::distance(bool, bool, int)+0x98>)
     200:	6028      	str	r0, [r5, #0]
     202:	2800      	cmp	r0, #0
     204:	d1f4      	bne.n	1f0 <LidarLitev2::distance(bool, bool, int)+0x28>
     206:	4604      	mov	r4, r0
     208:	f10d 0818 	add.w	r8, sp, #24
     20c:	218f      	movs	r1, #143	; 0x8f
     20e:	2201      	movs	r2, #1
     210:	f808 1d0c 	strb.w	r1, [r8, #-12]!
     214:	601a      	str	r2, [r3, #0]
     216:	2301      	movs	r3, #1
     218:	9400      	str	r4, [sp, #0]
     21a:	4630      	mov	r0, r6
     21c:	4639      	mov	r1, r7
     21e:	4642      	mov	r2, r8
     220:	f003 f8ce 	bl	33c0 <mbed::I2C::write(int, char const*, int, bool)>
     224:	4b0e      	ldr	r3, [pc, #56]	; (260 <LidarLitev2::distance(bool, bool, int)+0x98>)
     226:	6028      	str	r0, [r5, #0]
     228:	2800      	cmp	r0, #0
     22a:	d1f4      	bne.n	216 <LidarLitev2::distance(bool, bool, int)+0x4e>
     22c:	4604      	mov	r4, r0
     22e:	2201      	movs	r2, #1
     230:	601a      	str	r2, [r3, #0]
     232:	9400      	str	r4, [sp, #0]
     234:	4630      	mov	r0, r6
     236:	4639      	mov	r1, r7
     238:	aa05      	add	r2, sp, #20
     23a:	2302      	movs	r3, #2
     23c:	f003 f8da 	bl	33f4 <mbed::I2C::read(int, char*, int, bool)>
     240:	6028      	str	r0, [r5, #0]
     242:	2800      	cmp	r0, #0
     244:	d1f5      	bne.n	232 <LidarLitev2::distance(bool, bool, int)+0x6a>
     246:	f89d 0014 	ldrb.w	r0, [sp, #20]
     24a:	f89d 3015 	ldrb.w	r3, [sp, #21]
     24e:	eb03 2000 	add.w	r0, r3, r0, lsl #8
     252:	b006      	add	sp, #24
     254:	e8bd 81f0 	ldmia.w	sp!, {r4, r5, r6, r7, r8, pc}
     258:	2301      	movs	r3, #1
     25a:	602b      	str	r3, [r5, #0]
     25c:	e7c7      	b.n	1ee <LidarLitev2::distance(bool, bool, int)+0x26>
     25e:	bf00      	nop
     260:	10000210 	.word	0x10000210

00000264 <mbed::SerialBase::~SerialBase()>:
     264:	4770      	bx	lr
     266:	bf00      	nop

00000268 <sender0(void const*)>:
     268:	b5f8      	push	{r3, r4, r5, r6, r7, lr}
     26a:	4f10      	ldr	r7, [pc, #64]	; (2ac <sender0(void const*)+0x44>)
     26c:	4c10      	ldr	r4, [pc, #64]	; (2b0 <sender0(void const*)+0x48>)
     26e:	2500      	movs	r5, #0
     270:	f04f 31ff 	mov.w	r1, #4294967295
     274:	4620      	mov	r0, r4
     276:	f000 fbb1 	bl	9dc <rtos::Mutex::lock(unsigned long)>
     27a:	f857 6025 	ldr.w	r6, [r7, r5, lsl #2]
     27e:	4620      	mov	r0, r4
     280:	f000 fbb0 	bl	9e4 <rtos::Mutex::unlock()>
     284:	4629      	mov	r1, r5
     286:	480b      	ldr	r0, [pc, #44]	; (2b4 <sender0(void const*)+0x4c>)
     288:	f003 fb1a 	bl	38c0 <mbed::Stream::putc(int)>
     28c:	1231      	asrs	r1, r6, #8
     28e:	4809      	ldr	r0, [pc, #36]	; (2b4 <sender0(void const*)+0x4c>)
     290:	f003 fb16 	bl	38c0 <mbed::Stream::putc(int)>
     294:	b271      	sxtb	r1, r6
     296:	4807      	ldr	r0, [pc, #28]	; (2b4 <sender0(void const*)+0x4c>)
     298:	f003 fb12 	bl	38c0 <mbed::Stream::putc(int)>
     29c:	2005      	movs	r0, #5
     29e:	3414      	adds	r4, #20
     2a0:	f000 fc06 	bl	ab0 <rtos::Thread::wait(unsigned long)>
     2a4:	2d00      	cmp	r5, #0
     2a6:	d1e1      	bne.n	26c <sender0(void const*)+0x4>
     2a8:	2501      	movs	r5, #1
     2aa:	e7e1      	b.n	270 <sender0(void const*)+0x8>
     2ac:	100003c4 	.word	0x100003c4
     2b0:	10000214 	.word	0x10000214
     2b4:	10000280 	.word	0x10000280

000002b8 <aquisitionAnalog0(void const*)>:
     2b8:	b508      	push	{r3, lr}
     2ba:	4c0b      	ldr	r4, [pc, #44]	; (2e8 <aquisitionAnalog0(void const*)+0x30>)
     2bc:	f04f 31ff 	mov.w	r1, #4294967295
     2c0:	480a      	ldr	r0, [pc, #40]	; (2ec <aquisitionAnalog0(void const*)+0x34>)
     2c2:	f000 fb8b 	bl	9dc <rtos::Mutex::lock(unsigned long)>
     2c6:	480a      	ldr	r0, [pc, #40]	; (2f0 <aquisitionAnalog0(void const*)+0x38>)
     2c8:	f001 ffd8 	bl	227c <analogin_read>
     2cc:	4909      	ldr	r1, [pc, #36]	; (2f4 <aquisitionAnalog0(void const*)+0x3c>)
     2ce:	f004 f87b 	bl	43c8 <__aeabi_fmul>
     2d2:	f004 fa3f 	bl	4754 <__aeabi_f2iz>
     2d6:	6020      	str	r0, [r4, #0]
     2d8:	4804      	ldr	r0, [pc, #16]	; (2ec <aquisitionAnalog0(void const*)+0x34>)
     2da:	f000 fb83 	bl	9e4 <rtos::Mutex::unlock()>
     2de:	2014      	movs	r0, #20
     2e0:	f000 fbe6 	bl	ab0 <rtos::Thread::wait(unsigned long)>
     2e4:	e7ea      	b.n	2bc <aquisitionAnalog0(void const*)+0x4>
     2e6:	bf00      	nop
     2e8:	100003c4 	.word	0x100003c4
     2ec:	10000214 	.word	0x10000214
     2f0:	1000023c 	.word	0x1000023c
     2f4:	437f0000 	.word	0x437f0000

000002f8 <aquisitionLidar0(void const*)>:
     2f8:	b508      	push	{r3, lr}
     2fa:	480c      	ldr	r0, [pc, #48]	; (32c <aquisitionLidar0(void const*)+0x34>)
     2fc:	2100      	movs	r1, #0
     2fe:	22c4      	movs	r2, #196	; 0xc4
     300:	f7ff ff30 	bl	164 <LidarLitev2::configure(int, int)>
     304:	4c0a      	ldr	r4, [pc, #40]	; (330 <aquisitionLidar0(void const*)+0x38>)
     306:	f04f 31ff 	mov.w	r1, #4294967295
     30a:	480a      	ldr	r0, [pc, #40]	; (334 <aquisitionLidar0(void const*)+0x3c>)
     30c:	f000 fb66 	bl	9dc <rtos::Mutex::lock(unsigned long)>
     310:	2101      	movs	r1, #1
     312:	460a      	mov	r2, r1
     314:	23c4      	movs	r3, #196	; 0xc4
     316:	4805      	ldr	r0, [pc, #20]	; (32c <aquisitionLidar0(void const*)+0x34>)
     318:	f7ff ff56 	bl	1c8 <LidarLitev2::distance(bool, bool, int)>
     31c:	6060      	str	r0, [r4, #4]
     31e:	4805      	ldr	r0, [pc, #20]	; (334 <aquisitionLidar0(void const*)+0x3c>)
     320:	f000 fb60 	bl	9e4 <rtos::Mutex::unlock()>
     324:	2014      	movs	r0, #20
     326:	f000 fbc3 	bl	ab0 <rtos::Thread::wait(unsigned long)>
     32a:	e7ec      	b.n	306 <aquisitionLidar0(void const*)+0xe>
     32c:	100002ac 	.word	0x100002ac
     330:	100003c4 	.word	0x100003c4
     334:	10000228 	.word	0x10000228

00000338 <actionServo0(void const*)>:
     338:	b508      	push	{r3, lr}
     33a:	4c0a      	ldr	r4, [pc, #40]	; (364 <actionServo0(void const*)+0x2c>)
     33c:	f04f 31ff 	mov.w	r1, #4294967295
     340:	4809      	ldr	r0, [pc, #36]	; (368 <actionServo0(void const*)+0x30>)
     342:	f000 fb4b 	bl	9dc <rtos::Mutex::lock(unsigned long)>
     346:	6820      	ldr	r0, [r4, #0]
     348:	f003 ffea 	bl	4320 <__aeabi_i2f>
     34c:	4601      	mov	r1, r0
     34e:	4807      	ldr	r0, [pc, #28]	; (36c <actionServo0(void const*)+0x34>)
     350:	f000 fac6 	bl	8e0 <Servo::position(float)>
     354:	4804      	ldr	r0, [pc, #16]	; (368 <actionServo0(void const*)+0x30>)
     356:	f000 fb45 	bl	9e4 <rtos::Mutex::unlock()>
     35a:	2014      	movs	r0, #20
     35c:	f000 fba8 	bl	ab0 <rtos::Thread::wait(unsigned long)>
     360:	e7ec      	b.n	33c <actionServo0(void const*)+0x4>
     362:	bf00      	nop
     364:	100002c8 	.word	0x100002c8
     368:	100002fc 	.word	0x100002fc
     36c:	100002b4 	.word	0x100002b4

00000370 <actionServo1(void const*)>:
     370:	b508      	push	{r3, lr}
     372:	4c0a      	ldr	r4, [pc, #40]	; (39c <actionServo1(void const*)+0x2c>)
     374:	f04f 31ff 	mov.w	r1, #4294967295
     378:	4809      	ldr	r0, [pc, #36]	; (3a0 <actionServo1(void const*)+0x30>)
     37a:	f000 fb2f 	bl	9dc <rtos::Mutex::lock(unsigned long)>
     37e:	6860      	ldr	r0, [r4, #4]
     380:	f003 ffce 	bl	4320 <__aeabi_i2f>
     384:	4601      	mov	r1, r0
     386:	4807      	ldr	r0, [pc, #28]	; (3a4 <actionServo1(void const*)+0x34>)
     388:	f000 faaa 	bl	8e0 <Servo::position(float)>
     38c:	4804      	ldr	r0, [pc, #16]	; (3a0 <actionServo1(void const*)+0x30>)
     38e:	f000 fb29 	bl	9e4 <rtos::Mutex::unlock()>
     392:	2014      	movs	r0, #20
     394:	f000 fb8c 	bl	ab0 <rtos::Thread::wait(unsigned long)>
     398:	e7ec      	b.n	374 <actionServo1(void const*)+0x4>
     39a:	bf00      	nop
     39c:	100002c8 	.word	0x100002c8
     3a0:	10000310 	.word	0x10000310
     3a4:	100003cc 	.word	0x100003cc

000003a8 <actionServo2(void const*)>:
     3a8:	b508      	push	{r3, lr}
     3aa:	4c0a      	ldr	r4, [pc, #40]	; (3d4 <actionServo2(void const*)+0x2c>)
     3ac:	f04f 31ff 	mov.w	r1, #4294967295
     3b0:	4809      	ldr	r0, [pc, #36]	; (3d8 <actionServo2(void const*)+0x30>)
     3b2:	f000 fb13 	bl	9dc <rtos::Mutex::lock(unsigned long)>
     3b6:	68a0      	ldr	r0, [r4, #8]
     3b8:	f003 ffb2 	bl	4320 <__aeabi_i2f>
     3bc:	4601      	mov	r1, r0
     3be:	4807      	ldr	r0, [pc, #28]	; (3dc <actionServo2(void const*)+0x34>)
     3c0:	f000 fa8e 	bl	8e0 <Servo::position(float)>
     3c4:	4804      	ldr	r0, [pc, #16]	; (3d8 <actionServo2(void const*)+0x30>)
     3c6:	f000 fb0d 	bl	9e4 <rtos::Mutex::unlock()>
     3ca:	2014      	movs	r0, #20
     3cc:	f000 fb70 	bl	ab0 <rtos::Thread::wait(unsigned long)>
     3d0:	e7ec      	b.n	3ac <actionServo2(void const*)+0x4>
     3d2:	bf00      	nop
     3d4:	100002c8 	.word	0x100002c8
     3d8:	10000324 	.word	0x10000324
     3dc:	100002e8 	.word	0x100002e8

000003e0 <actionServo3(void const*)>:
     3e0:	b508      	push	{r3, lr}
     3e2:	4c0a      	ldr	r4, [pc, #40]	; (40c <actionServo3(void const*)+0x2c>)
     3e4:	f04f 31ff 	mov.w	r1, #4294967295
     3e8:	4809      	ldr	r0, [pc, #36]	; (410 <actionServo3(void const*)+0x30>)
     3ea:	f000 faf7 	bl	9dc <rtos::Mutex::lock(unsigned long)>
     3ee:	68e0      	ldr	r0, [r4, #12]
     3f0:	f003 ff96 	bl	4320 <__aeabi_i2f>
     3f4:	4601      	mov	r1, r0
     3f6:	4807      	ldr	r0, [pc, #28]	; (414 <actionServo3(void const*)+0x34>)
     3f8:	f000 fa72 	bl	8e0 <Servo::position(float)>
     3fc:	4804      	ldr	r0, [pc, #16]	; (410 <actionServo3(void const*)+0x30>)
     3fe:	f000 faf1 	bl	9e4 <rtos::Mutex::unlock()>
     402:	2014      	movs	r0, #20
     404:	f000 fb54 	bl	ab0 <rtos::Thread::wait(unsigned long)>
     408:	e7ec      	b.n	3e4 <actionServo3(void const*)+0x4>
     40a:	bf00      	nop
     40c:	100002c8 	.word	0x100002c8
     410:	10000338 	.word	0x10000338
     414:	10000298 	.word	0x10000298

00000418 <actionServo4(void const*)>:
     418:	b508      	push	{r3, lr}
     41a:	4c0a      	ldr	r4, [pc, #40]	; (444 <actionServo4(void const*)+0x2c>)
     41c:	f04f 31ff 	mov.w	r1, #4294967295
     420:	4809      	ldr	r0, [pc, #36]	; (448 <actionServo4(void const*)+0x30>)
     422:	f000 fadb 	bl	9dc <rtos::Mutex::lock(unsigned long)>
     426:	6920      	ldr	r0, [r4, #16]
     428:	f003 ff7a 	bl	4320 <__aeabi_i2f>
     42c:	4601      	mov	r1, r0
     42e:	4807      	ldr	r0, [pc, #28]	; (44c <actionServo4(void const*)+0x34>)
     430:	f000 fa56 	bl	8e0 <Servo::position(float)>
     434:	4804      	ldr	r0, [pc, #16]	; (448 <actionServo4(void const*)+0x30>)
     436:	f000 fad5 	bl	9e4 <rtos::Mutex::unlock()>
     43a:	2014      	movs	r0, #20
     43c:	f000 fb38 	bl	ab0 <rtos::Thread::wait(unsigned long)>
     440:	e7ec      	b.n	41c <actionServo4(void const*)+0x4>
     442:	bf00      	nop
     444:	100002c8 	.word	0x100002c8
     448:	1000034c 	.word	0x1000034c
     44c:	1000039c 	.word	0x1000039c

00000450 <actionServo5(void const*)>:
     450:	b508      	push	{r3, lr}
     452:	4c0a      	ldr	r4, [pc, #40]	; (47c <actionServo5(void const*)+0x2c>)
     454:	f04f 31ff 	mov.w	r1, #4294967295
     458:	4809      	ldr	r0, [pc, #36]	; (480 <actionServo5(void const*)+0x30>)
     45a:	f000 fabf 	bl	9dc <rtos::Mutex::lock(unsigned long)>
     45e:	6960      	ldr	r0, [r4, #20]
     460:	f003 ff5e 	bl	4320 <__aeabi_i2f>
     464:	4601      	mov	r1, r0
     466:	4807      	ldr	r0, [pc, #28]	; (484 <actionServo5(void const*)+0x34>)
     468:	f000 fa3a 	bl	8e0 <Servo::position(float)>
     46c:	4804      	ldr	r0, [pc, #16]	; (480 <actionServo5(void const*)+0x30>)
     46e:	f000 fab9 	bl	9e4 <rtos::Mutex::unlock()>
     472:	2014      	movs	r0, #20
     474:	f000 fb1c 	bl	ab0 <rtos::Thread::wait(unsigned long)>
     478:	e7ec      	b.n	454 <actionServo5(void const*)+0x4>
     47a:	bf00      	nop
     47c:	100002c8 	.word	0x100002c8
     480:	10000360 	.word	0x10000360
     484:	100003b0 	.word	0x100003b0

00000488 <receveur0(void const*)>:
     488:	e92d 41f0 	stmdb	sp!, {r4, r5, r6, r7, r8, lr}
     48c:	f8df 8040 	ldr.w	r8, [pc, #64]	; 4d0 <receveur0(void const*)+0x48>
     490:	4f0d      	ldr	r7, [pc, #52]	; (4c8 <receveur0(void const*)+0x40>)
     492:	480e      	ldr	r0, [pc, #56]	; (4cc <receveur0(void const*)+0x44>)
     494:	f003 fa20 	bl	38d8 <mbed::Stream::getc()>
     498:	4605      	mov	r5, r0
     49a:	480c      	ldr	r0, [pc, #48]	; (4cc <receveur0(void const*)+0x44>)
     49c:	f003 fa1c 	bl	38d8 <mbed::Stream::getc()>
     4a0:	4606      	mov	r6, r0
     4a2:	eb05 0485 	add.w	r4, r5, r5, lsl #2
     4a6:	eb08 0484 	add.w	r4, r8, r4, lsl #2
     4aa:	f04f 31ff 	mov.w	r1, #4294967295
     4ae:	4620      	mov	r0, r4
     4b0:	f000 fa94 	bl	9dc <rtos::Mutex::lock(unsigned long)>
     4b4:	4620      	mov	r0, r4
     4b6:	f847 6025 	str.w	r6, [r7, r5, lsl #2]
     4ba:	f000 fa93 	bl	9e4 <rtos::Mutex::unlock()>
     4be:	2014      	movs	r0, #20
     4c0:	f000 faf6 	bl	ab0 <rtos::Thread::wait(unsigned long)>
     4c4:	e7e5      	b.n	492 <receveur0(void const*)+0xa>
     4c6:	bf00      	nop
     4c8:	100002c8 	.word	0x100002c8
     4cc:	10000280 	.word	0x10000280
     4d0:	100002fc 	.word	0x100002fc

000004d4 <mbed::Serial::~Serial()>:
     4d4:	b510      	push	{r4, lr}
     4d6:	4604      	mov	r4, r0
     4d8:	4b06      	ldr	r3, [pc, #24]	; (4f4 <mbed::Serial::~Serial()+0x20>)
     4da:	3040      	adds	r0, #64	; 0x40
     4dc:	f103 0118 	add.w	r1, r3, #24
     4e0:	f103 024c 	add.w	r2, r3, #76	; 0x4c
     4e4:	6023      	str	r3, [r4, #0]
     4e6:	6421      	str	r1, [r4, #64]	; 0x40
     4e8:	6462      	str	r2, [r4, #68]	; 0x44
     4ea:	f003 f9d7 	bl	389c <mbed::Stream::~Stream()>
     4ee:	4620      	mov	r0, r4
     4f0:	bd10      	pop	{r4, pc}
     4f2:	bf00      	nop
     4f4:	000070a0 	.word	0x000070a0

000004f8 <non-virtual thunk to mbed::Serial::~Serial()>:
     4f8:	f1a0 0040 	sub.w	r0, r0, #64	; 0x40
     4fc:	f7ff bfea 	b.w	4d4 <mbed::Serial::~Serial()>

00000500 <non-virtual thunk to mbed::Serial::~Serial()>:
     500:	f1a0 0044 	sub.w	r0, r0, #68	; 0x44
     504:	f7ff bfe6 	b.w	4d4 <mbed::Serial::~Serial()>

00000508 <mbed::SerialBase::~SerialBase()>:
     508:	b510      	push	{r4, lr}
     50a:	4604      	mov	r4, r0
     50c:	f003 fa17 	bl	393e <operator delete(void*)>
     510:	4620      	mov	r0, r4
     512:	bd10      	pop	{r4, pc}

00000514 <__tcf_1>:
     514:	b538      	push	{r3, r4, r5, lr}
     516:	4c05      	ldr	r4, [pc, #20]	; (52c <__tcf_1+0x18>)
     518:	f1a4 05a0 	sub.w	r5, r4, #160	; 0xa0
     51c:	4620      	mov	r0, r4
     51e:	3c14      	subs	r4, #20
     520:	f000 fa64 	bl	9ec <rtos::Mutex::~Mutex()>
     524:	42ac      	cmp	r4, r5
     526:	d1f9      	bne.n	51c <__tcf_1+0x8>
     528:	bd38      	pop	{r3, r4, r5, pc}
     52a:	bf00      	nop
     52c:	10000388 	.word	0x10000388

00000530 <__tcf_0>:
     530:	b510      	push	{r4, lr}
     532:	4c05      	ldr	r4, [pc, #20]	; (548 <__tcf_0+0x18>)
     534:	f104 0014 	add.w	r0, r4, #20
     538:	f000 fa58 	bl	9ec <rtos::Mutex::~Mutex()>
     53c:	4620      	mov	r0, r4
     53e:	e8bd 4010 	ldmia.w	sp!, {r4, lr}
     542:	f000 ba53 	b.w	9ec <rtos::Mutex::~Mutex()>
     546:	bf00      	nop
     548:	10000214 	.word	0x10000214

0000054c <init_com()>:
     54c:	b570      	push	{r4, r5, r6, lr}
     54e:	2102      	movs	r1, #2
     550:	4817      	ldr	r0, [pc, #92]	; (5b0 <init_com()+0x64>)
     552:	f003 f9b5 	bl	38c0 <mbed::Stream::putc(int)>
     556:	2108      	movs	r1, #8
     558:	4815      	ldr	r0, [pc, #84]	; (5b0 <init_com()+0x64>)
     55a:	f003 f9b1 	bl	38c0 <mbed::Stream::putc(int)>
     55e:	2100      	movs	r1, #0
     560:	460c      	mov	r4, r1
     562:	4d14      	ldr	r5, [pc, #80]	; (5b4 <init_com()+0x68>)
     564:	4812      	ldr	r0, [pc, #72]	; (5b0 <init_com()+0x64>)
     566:	f003 f9ab 	bl	38c0 <mbed::Stream::putc(int)>
     56a:	4621      	mov	r1, r4
     56c:	4810      	ldr	r0, [pc, #64]	; (5b0 <init_com()+0x64>)
     56e:	602c      	str	r4, [r5, #0]
     570:	f003 f9a6 	bl	38c0 <mbed::Stream::putc(int)>
     574:	2101      	movs	r1, #1
     576:	480e      	ldr	r0, [pc, #56]	; (5b0 <init_com()+0x64>)
     578:	f003 f9a2 	bl	38c0 <mbed::Stream::putc(int)>
     57c:	480c      	ldr	r0, [pc, #48]	; (5b0 <init_com()+0x64>)
     57e:	2101      	movs	r1, #1
     580:	606c      	str	r4, [r5, #4]
     582:	f003 f99d 	bl	38c0 <mbed::Stream::putc(int)>
     586:	4d0c      	ldr	r5, [pc, #48]	; (5b8 <init_com()+0x6c>)
     588:	26ff      	movs	r6, #255	; 0xff
     58a:	4621      	mov	r1, r4
     58c:	4808      	ldr	r0, [pc, #32]	; (5b0 <init_com()+0x64>)
     58e:	f003 f997 	bl	38c0 <mbed::Stream::putc(int)>
     592:	2c05      	cmp	r4, #5
     594:	f04f 0100 	mov.w	r1, #0
     598:	4805      	ldr	r0, [pc, #20]	; (5b0 <init_com()+0x64>)
     59a:	bfc4      	itt	gt
     59c:	2101      	movgt	r1, #1
     59e:	4804      	ldrgt	r0, [pc, #16]	; (5b0 <init_com()+0x64>)
     5a0:	f845 6f04 	str.w	r6, [r5, #4]!
     5a4:	3401      	adds	r4, #1
     5a6:	f003 f98b 	bl	38c0 <mbed::Stream::putc(int)>
     5aa:	2c08      	cmp	r4, #8
     5ac:	d1ed      	bne.n	58a <init_com()+0x3e>
     5ae:	bd70      	pop	{r4, r5, r6, pc}
     5b0:	10000280 	.word	0x10000280
     5b4:	100003c4 	.word	0x100003c4
     5b8:	100002c4 	.word	0x100002c4

000005bc <main>:
     5bc:	b530      	push	{r4, r5, lr}
     5be:	4831      	ldr	r0, [pc, #196]	; (684 <main+0xc8>)
     5c0:	f5ad 7d4b 	sub.w	sp, sp, #812	; 0x32c
     5c4:	f44f 31e1 	mov.w	r1, #115200	; 0x1c200
     5c8:	f003 f8d8 	bl	377c <mbed::SerialBase::baud(int)>
     5cc:	482e      	ldr	r0, [pc, #184]	; (688 <main+0xcc>)
     5ce:	f003 f983 	bl	38d8 <mbed::Stream::getc()>
     5d2:	b2c0      	uxtb	r0, r0
     5d4:	28ff      	cmp	r0, #255	; 0xff
     5d6:	d1f9      	bne.n	5cc <main+0x10>
     5d8:	2400      	movs	r4, #0
     5da:	f44f 6500 	mov.w	r5, #2048	; 0x800
     5de:	f7ff ffb5 	bl	54c <init_com()>
     5e2:	4622      	mov	r2, r4
     5e4:	4623      	mov	r3, r4
     5e6:	4929      	ldr	r1, [pc, #164]	; (68c <main+0xd0>)
     5e8:	9500      	str	r5, [sp, #0]
     5ea:	9401      	str	r4, [sp, #4]
     5ec:	a802      	add	r0, sp, #8
     5ee:	f000 fa21 	bl	a34 <rtos::Thread::Thread(void (*)(void const*), void*, osPriority, unsigned long, unsigned char*)>
     5f2:	4622      	mov	r2, r4
     5f4:	4623      	mov	r3, r4
     5f6:	4926      	ldr	r1, [pc, #152]	; (690 <main+0xd4>)
     5f8:	9500      	str	r5, [sp, #0]
     5fa:	9401      	str	r4, [sp, #4]
     5fc:	a816      	add	r0, sp, #88	; 0x58
     5fe:	f000 fa19 	bl	a34 <rtos::Thread::Thread(void (*)(void const*), void*, osPriority, unsigned long, unsigned char*)>
     602:	4622      	mov	r2, r4
     604:	4623      	mov	r3, r4
     606:	4923      	ldr	r1, [pc, #140]	; (694 <main+0xd8>)
     608:	9500      	str	r5, [sp, #0]
     60a:	9401      	str	r4, [sp, #4]
     60c:	a82a      	add	r0, sp, #168	; 0xa8
     60e:	f000 fa11 	bl	a34 <rtos::Thread::Thread(void (*)(void const*), void*, osPriority, unsigned long, unsigned char*)>
     612:	4622      	mov	r2, r4
     614:	4623      	mov	r3, r4
     616:	4920      	ldr	r1, [pc, #128]	; (698 <main+0xdc>)
     618:	9500      	str	r5, [sp, #0]
     61a:	9401      	str	r4, [sp, #4]
     61c:	a83e      	add	r0, sp, #248	; 0xf8
     61e:	f000 fa09 	bl	a34 <rtos::Thread::Thread(void (*)(void const*), void*, osPriority, unsigned long, unsigned char*)>
     622:	4622      	mov	r2, r4
     624:	4623      	mov	r3, r4
     626:	491d      	ldr	r1, [pc, #116]	; (69c <main+0xe0>)
     628:	9500      	str	r5, [sp, #0]
     62a:	9401      	str	r4, [sp, #4]
     62c:	a852      	add	r0, sp, #328	; 0x148
     62e:	f000 fa01 	bl	a34 <rtos::Thread::Thread(void (*)(void const*), void*, osPriority, unsigned long, unsigned char*)>
     632:	4622      	mov	r2, r4
     634:	4623      	mov	r3, r4
     636:	491a      	ldr	r1, [pc, #104]	; (6a0 <main+0xe4>)
     638:	9500      	str	r5, [sp, #0]
     63a:	9401      	str	r4, [sp, #4]
     63c:	a866      	add	r0, sp, #408	; 0x198
     63e:	f000 f9f9 	bl	a34 <rtos::Thread::Thread(void (*)(void const*), void*, osPriority, unsigned long, unsigned char*)>
     642:	4622      	mov	r2, r4
     644:	4623      	mov	r3, r4
     646:	4917      	ldr	r1, [pc, #92]	; (6a4 <main+0xe8>)
     648:	9500      	str	r5, [sp, #0]
     64a:	9401      	str	r4, [sp, #4]
     64c:	a87a      	add	r0, sp, #488	; 0x1e8
     64e:	f000 f9f1 	bl	a34 <rtos::Thread::Thread(void (*)(void const*), void*, osPriority, unsigned long, unsigned char*)>
     652:	4622      	mov	r2, r4
     654:	4623      	mov	r3, r4
     656:	4914      	ldr	r1, [pc, #80]	; (6a8 <main+0xec>)
     658:	9500      	str	r5, [sp, #0]
     65a:	9401      	str	r4, [sp, #4]
     65c:	a88e      	add	r0, sp, #568	; 0x238
     65e:	f000 f9e9 	bl	a34 <rtos::Thread::Thread(void (*)(void const*), void*, osPriority, unsigned long, unsigned char*)>
     662:	4622      	mov	r2, r4
     664:	4623      	mov	r3, r4
     666:	4911      	ldr	r1, [pc, #68]	; (6ac <main+0xf0>)
     668:	9500      	str	r5, [sp, #0]
     66a:	9401      	str	r4, [sp, #4]
     66c:	a8a2      	add	r0, sp, #648	; 0x288
     66e:	f000 f9e1 	bl	a34 <rtos::Thread::Thread(void (*)(void const*), void*, osPriority, unsigned long, unsigned char*)>
     672:	9500      	str	r5, [sp, #0]
     674:	9401      	str	r4, [sp, #4]
     676:	4622      	mov	r2, r4
     678:	4623      	mov	r3, r4
     67a:	a8b6      	add	r0, sp, #728	; 0x2d8
     67c:	490c      	ldr	r1, [pc, #48]	; (6b0 <main+0xf4>)
     67e:	f000 f9d9 	bl	a34 <rtos::Thread::Thread(void (*)(void const*), void*, osPriority, unsigned long, unsigned char*)>
     682:	e7fe      	b.n	682 <main+0xc6>
     684:	10000240 	.word	0x10000240
     688:	10000280 	.word	0x10000280
     68c:	000002b9 	.word	0x000002b9
     690:	000002f9 	.word	0x000002f9
     694:	00000269 	.word	0x00000269
     698:	00000339 	.word	0x00000339
     69c:	00000371 	.word	0x00000371
     6a0:	000003a9 	.word	0x000003a9
     6a4:	000003e1 	.word	0x000003e1
     6a8:	00000419 	.word	0x00000419
     6ac:	00000451 	.word	0x00000451
     6b0:	00000489 	.word	0x00000489

000006b4 <mbed::Serial::~Serial()>:
     6b4:	b510      	push	{r4, lr}
     6b6:	4604      	mov	r4, r0
     6b8:	4b07      	ldr	r3, [pc, #28]	; (6d8 <mbed::Serial::~Serial()+0x24>)
     6ba:	3040      	adds	r0, #64	; 0x40
     6bc:	f103 0118 	add.w	r1, r3, #24
     6c0:	f103 024c 	add.w	r2, r3, #76	; 0x4c
     6c4:	6023      	str	r3, [r4, #0]
     6c6:	6421      	str	r1, [r4, #64]	; 0x40
     6c8:	6462      	str	r2, [r4, #68]	; 0x44
     6ca:	f003 f8e7 	bl	389c <mbed::Stream::~Stream()>
     6ce:	4620      	mov	r0, r4
     6d0:	f003 f935 	bl	393e <operator delete(void*)>
     6d4:	4620      	mov	r0, r4
     6d6:	bd10      	pop	{r4, pc}
     6d8:	000070a0 	.word	0x000070a0

000006dc <non-virtual thunk to mbed::Serial::~Serial()>:
     6dc:	f1a0 0040 	sub.w	r0, r0, #64	; 0x40
     6e0:	e7e8      	b.n	6b4 <mbed::Serial::~Serial()>
     6e2:	bf00      	nop

000006e4 <non-virtual thunk to mbed::Serial::~Serial()>:
     6e4:	f1a0 0044 	sub.w	r0, r0, #68	; 0x44
     6e8:	e7e4      	b.n	6b4 <mbed::Serial::~Serial()>
     6ea:	bf00      	nop

000006ec <_GLOBAL__sub_I_Lidar>:
     6ec:	b538      	push	{r3, r4, r5, lr}
     6ee:	4a24      	ldr	r2, [pc, #144]	; (780 <_GLOBAL__sub_I_Lidar+0x94>)
     6f0:	2300      	movs	r3, #0
     6f2:	4924      	ldr	r1, [pc, #144]	; (784 <_GLOBAL__sub_I_Lidar+0x98>)
     6f4:	4824      	ldr	r0, [pc, #144]	; (788 <_GLOBAL__sub_I_Lidar+0x9c>)
     6f6:	f7ff fd17 	bl	128 <LidarLitev2::LidarLitev2(PinName, PinName, bool)>
     6fa:	4824      	ldr	r0, [pc, #144]	; (78c <_GLOBAL__sub_I_Lidar+0xa0>)
     6fc:	4924      	ldr	r1, [pc, #144]	; (790 <_GLOBAL__sub_I_Lidar+0xa4>)
     6fe:	f001 fd7d 	bl	21fc <analogin_init>
     702:	4924      	ldr	r1, [pc, #144]	; (794 <_GLOBAL__sub_I_Lidar+0xa8>)
     704:	4824      	ldr	r0, [pc, #144]	; (798 <_GLOBAL__sub_I_Lidar+0xac>)
     706:	f000 f8d5 	bl	8b4 <Servo::Servo(PinName)>
     70a:	4924      	ldr	r1, [pc, #144]	; (79c <_GLOBAL__sub_I_Lidar+0xb0>)
     70c:	4824      	ldr	r0, [pc, #144]	; (7a0 <_GLOBAL__sub_I_Lidar+0xb4>)
     70e:	f000 f8d1 	bl	8b4 <Servo::Servo(PinName)>
     712:	4924      	ldr	r1, [pc, #144]	; (7a4 <_GLOBAL__sub_I_Lidar+0xb8>)
     714:	4824      	ldr	r0, [pc, #144]	; (7a8 <_GLOBAL__sub_I_Lidar+0xbc>)
     716:	f000 f8cd 	bl	8b4 <Servo::Servo(PinName)>
     71a:	4924      	ldr	r1, [pc, #144]	; (7ac <_GLOBAL__sub_I_Lidar+0xc0>)
     71c:	4824      	ldr	r0, [pc, #144]	; (7b0 <_GLOBAL__sub_I_Lidar+0xc4>)
     71e:	f000 f8c9 	bl	8b4 <Servo::Servo(PinName)>
     722:	4924      	ldr	r1, [pc, #144]	; (7b4 <_GLOBAL__sub_I_Lidar+0xc8>)
     724:	4824      	ldr	r0, [pc, #144]	; (7b8 <_GLOBAL__sub_I_Lidar+0xcc>)
     726:	f000 f8c5 	bl	8b4 <Servo::Servo(PinName)>
     72a:	4924      	ldr	r1, [pc, #144]	; (7bc <_GLOBAL__sub_I_Lidar+0xd0>)
     72c:	4824      	ldr	r0, [pc, #144]	; (7c0 <_GLOBAL__sub_I_Lidar+0xd4>)
     72e:	f000 f8c1 	bl	8b4 <Servo::Servo(PinName)>
     732:	4824      	ldr	r0, [pc, #144]	; (7c4 <_GLOBAL__sub_I_Lidar+0xd8>)
     734:	f000 f932 	bl	99c <rtos::Mutex::Mutex()>
     738:	4823      	ldr	r0, [pc, #140]	; (7c8 <_GLOBAL__sub_I_Lidar+0xdc>)
     73a:	f000 f92f 	bl	99c <rtos::Mutex::Mutex()>
     73e:	2000      	movs	r0, #0
     740:	4922      	ldr	r1, [pc, #136]	; (7cc <_GLOBAL__sub_I_Lidar+0xe0>)
     742:	4a23      	ldr	r2, [pc, #140]	; (7d0 <_GLOBAL__sub_I_Lidar+0xe4>)
     744:	f003 f8f6 	bl	3934 <__aeabi_atexit>
     748:	4c22      	ldr	r4, [pc, #136]	; (7d4 <_GLOBAL__sub_I_Lidar+0xe8>)
     74a:	f104 05a0 	add.w	r5, r4, #160	; 0xa0
     74e:	4620      	mov	r0, r4
     750:	3414      	adds	r4, #20
     752:	f000 f923 	bl	99c <rtos::Mutex::Mutex()>
     756:	42ac      	cmp	r4, r5
     758:	d1f9      	bne.n	74e <_GLOBAL__sub_I_Lidar+0x62>
     75a:	491f      	ldr	r1, [pc, #124]	; (7d8 <_GLOBAL__sub_I_Lidar+0xec>)
     75c:	4a1c      	ldr	r2, [pc, #112]	; (7d0 <_GLOBAL__sub_I_Lidar+0xe4>)
     75e:	2000      	movs	r0, #0
     760:	f003 f8e8 	bl	3934 <__aeabi_atexit>
     764:	491d      	ldr	r1, [pc, #116]	; (7dc <_GLOBAL__sub_I_Lidar+0xf0>)
     766:	4a1e      	ldr	r2, [pc, #120]	; (7e0 <_GLOBAL__sub_I_Lidar+0xf4>)
     768:	2300      	movs	r3, #0
     76a:	481e      	ldr	r0, [pc, #120]	; (7e4 <_GLOBAL__sub_I_Lidar+0xf8>)
     76c:	f003 f826 	bl	37bc <mbed::Serial::Serial(PinName, PinName, char const*)>
     770:	e8bd 4038 	ldmia.w	sp!, {r3, r4, r5, lr}
     774:	481b      	ldr	r0, [pc, #108]	; (7e4 <_GLOBAL__sub_I_Lidar+0xf8>)
     776:	491c      	ldr	r1, [pc, #112]	; (7e8 <_GLOBAL__sub_I_Lidar+0xfc>)
     778:	4a15      	ldr	r2, [pc, #84]	; (7d0 <_GLOBAL__sub_I_Lidar+0xe4>)
     77a:	f003 b8db 	b.w	3934 <__aeabi_atexit>
     77e:	bf00      	nop
     780:	2009c001 	.word	0x2009c001
     784:	2009c000 	.word	0x2009c000
     788:	100002ac 	.word	0x100002ac
     78c:	1000023c 	.word	0x1000023c
     790:	2009c017 	.word	0x2009c017
     794:	2009c045 	.word	0x2009c045
     798:	100002b4 	.word	0x100002b4
     79c:	2009c044 	.word	0x2009c044
     7a0:	100003cc 	.word	0x100003cc
     7a4:	2009c043 	.word	0x2009c043
     7a8:	100002e8 	.word	0x100002e8
     7ac:	2009c042 	.word	0x2009c042
     7b0:	10000298 	.word	0x10000298
     7b4:	2009c041 	.word	0x2009c041
     7b8:	1000039c 	.word	0x1000039c
     7bc:	2009c040 	.word	0x2009c040
     7c0:	100003b0 	.word	0x100003b0
     7c4:	10000214 	.word	0x10000214
     7c8:	10000228 	.word	0x10000228
     7cc:	00000531 	.word	0x00000531
     7d0:	100000c8 	.word	0x100000c8
     7d4:	100002fc 	.word	0x100002fc
     7d8:	00000515 	.word	0x00000515
     7dc:	2009c002 	.word	0x2009c002
     7e0:	2009c003 	.word	0x2009c003
     7e4:	10000240 	.word	0x10000240
     7e8:	000004d5 	.word	0x000004d5
     7ec:	00000000 	.word	0x00000000

000007f0 <Servo::write(float)>:
     7f0:	e92d 47f0 	stmdb	sp!, {r4, r5, r6, r7, r8, r9, r10, lr}
     7f4:	f8d0 a008 	ldr.w	r10, [r0, #8]
     7f8:	4605      	mov	r5, r0
     7fa:	4650      	mov	r0, r10
     7fc:	460c      	mov	r4, r1
     7fe:	f003 fa1f 	bl	3c40 <__aeabi_f2d>
     802:	4602      	mov	r2, r0
     804:	460b      	mov	r3, r1
     806:	4680      	mov	r8, r0
     808:	4689      	mov	r9, r1
     80a:	f003 f8bb 	bl	3984 <__adddf3>
     80e:	4606      	mov	r6, r0
     810:	4620      	mov	r0, r4
     812:	460f      	mov	r7, r1
     814:	f003 fa14 	bl	3c40 <__aeabi_f2d>
     818:	2200      	movs	r2, #0
     81a:	4b25      	ldr	r3, [pc, #148]	; (8b0 <Heap_Size+0xb0>)
     81c:	f003 f8b0 	bl	3980 <__aeabi_dsub>
     820:	4602      	mov	r2, r0
     822:	460b      	mov	r3, r1
     824:	4630      	mov	r0, r6
     826:	4639      	mov	r1, r7
     828:	f003 fa5e 	bl	3ce8 <__aeabi_dmul>
     82c:	f003 fc6e 	bl	410c <__aeabi_d2f>
     830:	f10a 4600 	add.w	r6, r10, #2147483648	; 0x80000000
     834:	4631      	mov	r1, r6
     836:	4607      	mov	r7, r0
     838:	f003 ff64 	bl	4704 <__aeabi_fcmplt>
     83c:	b308      	cbz	r0, 882 <Heap_Size+0x82>
     83e:	4630      	mov	r0, r6
     840:	f003 f9fe 	bl	3c40 <__aeabi_f2d>
     844:	4680      	mov	r8, r0
     846:	4689      	mov	r9, r1
     848:	a317      	add	r3, pc, #92	; (adr r3, 8a8 <Heap_Size+0xa8>)
     84a:	e9d3 2300 	ldrd	r2, r3, [r3]
     84e:	4640      	mov	r0, r8
     850:	4649      	mov	r1, r9
     852:	f003 f897 	bl	3984 <__adddf3>
     856:	f003 fc59 	bl	410c <__aeabi_d2f>
     85a:	4601      	mov	r1, r0
     85c:	4628      	mov	r0, r5
     85e:	f002 f80f 	bl	2880 <pwmout_pulsewidth>
     862:	4620      	mov	r0, r4
     864:	2100      	movs	r1, #0
     866:	f003 ff4d 	bl	4704 <__aeabi_fcmplt>
     86a:	b9b0      	cbnz	r0, 89a <Heap_Size+0x9a>
     86c:	4620      	mov	r0, r4
     86e:	f04f 517e 	mov.w	r1, #1065353216	; 0x3f800000
     872:	f003 ff65 	bl	4740 <__aeabi_fcmpgt>
     876:	b108      	cbz	r0, 87c <Heap_Size+0x7c>
     878:	f04f 547e 	mov.w	r4, #1065353216	; 0x3f800000
     87c:	612c      	str	r4, [r5, #16]
     87e:	e8bd 87f0 	ldmia.w	sp!, {r4, r5, r6, r7, r8, r9, r10, pc}
     882:	4650      	mov	r0, r10
     884:	4639      	mov	r1, r7
     886:	f003 ff3d 	bl	4704 <__aeabi_fcmplt>
     88a:	2800      	cmp	r0, #0
     88c:	d1dc      	bne.n	848 <Heap_Size+0x48>
     88e:	4638      	mov	r0, r7
     890:	f003 f9d6 	bl	3c40 <__aeabi_f2d>
     894:	4680      	mov	r8, r0
     896:	4689      	mov	r9, r1
     898:	e7d6      	b.n	848 <Heap_Size+0x48>
     89a:	2400      	movs	r4, #0
     89c:	612c      	str	r4, [r5, #16]
     89e:	e8bd 87f0 	ldmia.w	sp!, {r4, r5, r6, r7, r8, r9, r10, pc}
     8a2:	bf00      	nop
     8a4:	f3af 8000 	nop.w
     8a8:	bc6a7efa 	.word	0xbc6a7efa
     8ac:	3f589374 	.word	0x3f589374
     8b0:	3fe00000 	.word	0x3fe00000

000008b4 <Servo::Servo(PinName)>:
     8b4:	b510      	push	{r4, lr}
     8b6:	4604      	mov	r4, r0
     8b8:	f001 ff94 	bl	27e4 <pwmout_init>
     8bc:	4a05      	ldr	r2, [pc, #20]	; (8d4 <Servo::Servo(PinName)+0x20>)
     8be:	4b06      	ldr	r3, [pc, #24]	; (8d8 <Servo::Servo(PinName)+0x24>)
     8c0:	4620      	mov	r0, r4
     8c2:	60a2      	str	r2, [r4, #8]
     8c4:	60e3      	str	r3, [r4, #12]
     8c6:	f04f 517c 	mov.w	r1, #1056964608	; 0x3f000000
     8ca:	f7ff ff91 	bl	7f0 <Servo::write(float)>
     8ce:	4620      	mov	r0, r4
     8d0:	bd10      	pop	{r4, pc}
     8d2:	bf00      	nop
     8d4:	3b03126f 	.word	0x3b03126f
     8d8:	437f0000 	.word	0x437f0000
     8dc:	00000000 	.word	0x00000000

000008e0 <Servo::position(float)>:
     8e0:	b5f8      	push	{r3, r4, r5, r6, r7, lr}
     8e2:	4604      	mov	r4, r0
     8e4:	6885      	ldr	r5, [r0, #8]
     8e6:	4608      	mov	r0, r1
     8e8:	68e1      	ldr	r1, [r4, #12]
     8ea:	f003 fe21 	bl	4530 <__aeabi_fdiv>
     8ee:	4601      	mov	r1, r0
     8f0:	4628      	mov	r0, r5
     8f2:	f003 fd69 	bl	43c8 <__aeabi_fmul>
     8f6:	f105 4600 	add.w	r6, r5, #2147483648	; 0x80000000
     8fa:	4631      	mov	r1, r6
     8fc:	4607      	mov	r7, r0
     8fe:	f003 ff01 	bl	4704 <__aeabi_fcmplt>
     902:	b928      	cbnz	r0, 910 <Servo::position(float)+0x30>
     904:	4628      	mov	r0, r5
     906:	4639      	mov	r1, r7
     908:	f003 fefc 	bl	4704 <__aeabi_fcmplt>
     90c:	b980      	cbnz	r0, 930 <Servo::position(float)+0x50>
     90e:	463e      	mov	r6, r7
     910:	4630      	mov	r0, r6
     912:	f003 f995 	bl	3c40 <__aeabi_f2d>
     916:	a308      	add	r3, pc, #32	; (adr r3, 938 <Servo::position(float)+0x58>)
     918:	e9d3 2300 	ldrd	r2, r3, [r3]
     91c:	f003 f832 	bl	3984 <__adddf3>
     920:	f003 fbf4 	bl	410c <__aeabi_d2f>
     924:	4601      	mov	r1, r0
     926:	4620      	mov	r0, r4
     928:	e8bd 40f8 	ldmia.w	sp!, {r3, r4, r5, r6, r7, lr}
     92c:	f001 bfa8 	b.w	2880 <pwmout_pulsewidth>
     930:	462e      	mov	r6, r5
     932:	e7ed      	b.n	910 <Servo::position(float)+0x30>
     934:	f3af 8000 	nop.w
     938:	d2f1a9fc 	.word	0xd2f1a9fc
     93c:	3f40624d 	.word	0x3f40624d

00000940 <_start>:
     940:	4a07      	ldr	r2, [pc, #28]	; (960 <_start+0x20>)
     942:	4808      	ldr	r0, [pc, #32]	; (964 <_start+0x24>)
     944:	b508      	push	{r3, lr}
     946:	2100      	movs	r1, #0
     948:	1a12      	subs	r2, r2, r0
     94a:	f004 fb7b 	bl	5044 <memset>
     94e:	f001 f97d 	bl	1c4c <software_init_hook>
     952:	f004 fac1 	bl	4ed8 <__libc_init_array>
     956:	f002 fe9d 	bl	3694 <__wrap_main>
     95a:	f003 ff5b 	bl	4814 <exit>
     95e:	bf00      	nop
     960:	100011f8 	.word	0x100011f8
     964:	100001f4 	.word	0x100001f4

00000968 <__wrap__isatty>:
     968:	2802      	cmp	r0, #2
     96a:	dc01      	bgt.n	970 <__wrap__isatty+0x8>
     96c:	2001      	movs	r0, #1
     96e:	4770      	bx	lr
     970:	f002 be58 	b.w	3624 <_isatty>

00000974 <__wrap_malloc>:
     974:	f3ef 8305 	mrs	r3, IPSR
     978:	b103      	cbz	r3, 97c <__wrap_malloc+0x8>
     97a:	be00      	bkpt	0x0000
     97c:	f004 bb1e 	b.w	4fbc <malloc>

00000980 <__wrap_free>:
     980:	f3ef 8305 	mrs	r3, IPSR
     984:	b103      	cbz	r3, 988 <__wrap_free+0x8>
     986:	be00      	bkpt	0x0000
     988:	f004 bb20 	b.w	4fcc <free>

0000098c <abort>:
     98c:	b508      	push	{r3, lr}
     98e:	2001      	movs	r0, #1
     990:	f003 ff40 	bl	4814 <exit>

00000994 <__cxa_pure_virtual>:
     994:	b508      	push	{r3, lr}
     996:	f7ff fff9 	bl	98c <abort>
     99a:	bf00      	nop

0000099c <rtos::Mutex::Mutex()>:
     99c:	b510      	push	{r4, lr}
     99e:	4604      	mov	r4, r0
     9a0:	2300      	movs	r3, #0
     9a2:	f104 0208 	add.w	r2, r4, #8
     9a6:	7223      	strb	r3, [r4, #8]
     9a8:	7263      	strb	r3, [r4, #9]
     9aa:	72a3      	strb	r3, [r4, #10]
     9ac:	72e3      	strb	r3, [r4, #11]
     9ae:	7323      	strb	r3, [r4, #12]
     9b0:	7363      	strb	r3, [r4, #13]
     9b2:	73a3      	strb	r3, [r4, #14]
     9b4:	73e3      	strb	r3, [r4, #15]
     9b6:	7423      	strb	r3, [r4, #16]
     9b8:	7463      	strb	r3, [r4, #17]
     9ba:	74a3      	strb	r3, [r4, #18]
     9bc:	74e3      	strb	r3, [r4, #19]
     9be:	f840 2f04 	str.w	r2, [r0, #4]!
     9c2:	f000 fa73 	bl	eac <osMutexCreate>
     9c6:	6020      	str	r0, [r4, #0]
     9c8:	b108      	cbz	r0, 9ce <rtos::Mutex::Mutex()+0x32>
     9ca:	4620      	mov	r0, r4
     9cc:	bd10      	pop	{r4, pc}
     9ce:	4802      	ldr	r0, [pc, #8]	; (9d8 <rtos::Mutex::Mutex()+0x3c>)
     9d0:	f001 fa8a 	bl	1ee8 <error>
     9d4:	4620      	mov	r0, r4
     9d6:	bd10      	pop	{r4, pc}
     9d8:	00006c28 	.word	0x00006c28

000009dc <rtos::Mutex::lock(unsigned long)>:
     9dc:	6800      	ldr	r0, [r0, #0]
     9de:	f000 ba81 	b.w	ee4 <osMutexWait>
     9e2:	bf00      	nop

000009e4 <rtos::Mutex::unlock()>:
     9e4:	6800      	ldr	r0, [r0, #0]
     9e6:	f000 ba89 	b.w	efc <osMutexRelease>
     9ea:	bf00      	nop

000009ec <rtos::Mutex::~Mutex()>:
     9ec:	b510      	push	{r4, lr}
     9ee:	4604      	mov	r4, r0
     9f0:	6800      	ldr	r0, [r0, #0]
     9f2:	f000 fa8f 	bl	f14 <osMutexDelete>
     9f6:	4620      	mov	r0, r4
     9f8:	bd10      	pop	{r4, pc}
     9fa:	bf00      	nop

000009fc <rtos::Thread::~Thread()>:
     9fc:	b510      	push	{r4, lr}
     9fe:	4604      	mov	r4, r0
     a00:	4b06      	ldr	r3, [pc, #24]	; (a1c <rtos::Thread::~Thread()+0x20>)
     a02:	6840      	ldr	r0, [r0, #4]
     a04:	6023      	str	r3, [r4, #0]
     a06:	f000 f981 	bl	d0c <osThreadTerminate>
     a0a:	f894 304c 	ldrb.w	r3, [r4, #76]	; 0x4c
     a0e:	b11b      	cbz	r3, a18 <rtos::Thread::~Thread()+0x1c>
     a10:	6960      	ldr	r0, [r4, #20]
     a12:	b108      	cbz	r0, a18 <rtos::Thread::~Thread()+0x1c>
     a14:	f002 ff8c 	bl	3930 <operator delete[](void*)>
     a18:	4620      	mov	r0, r4
     a1a:	bd10      	pop	{r4, pc}
     a1c:	00006c80 	.word	0x00006c80

00000a20 <rtos::Thread::~Thread()>:
     a20:	b510      	push	{r4, lr}
     a22:	4604      	mov	r4, r0
     a24:	f7ff ffea 	bl	9fc <rtos::Thread::~Thread()>
     a28:	4620      	mov	r0, r4
     a2a:	f002 ff88 	bl	393e <operator delete(void*)>
     a2e:	4620      	mov	r0, r4
     a30:	bd10      	pop	{r4, pc}
     a32:	bf00      	nop

00000a34 <rtos::Thread::Thread(void (*)(void const*), void*, osPriority, unsigned long, unsigned char*)>:
     a34:	b570      	push	{r4, r5, r6, lr}
     a36:	4606      	mov	r6, r0
     a38:	b082      	sub	sp, #8
     a3a:	4d1a      	ldr	r5, [pc, #104]	; (aa4 <rtos::Thread::Thread(void (*)(void const*), void*, osPriority, unsigned long, unsigned char*)+0x70>)
     a3c:	9806      	ldr	r0, [sp, #24]
     a3e:	9c07      	ldr	r4, [sp, #28]
     a40:	60b1      	str	r1, [r6, #8]
     a42:	81b3      	strh	r3, [r6, #12]
     a44:	6035      	str	r5, [r6, #0]
     a46:	6130      	str	r0, [r6, #16]
     a48:	b1b4      	cbz	r4, a78 <rtos::Thread::Thread(void (*)(void const*), void*, osPriority, unsigned long, unsigned char*)+0x44>
     a4a:	2300      	movs	r3, #0
     a4c:	6174      	str	r4, [r6, #20]
     a4e:	f886 304c 	strb.w	r3, [r6, #76]	; 0x4c
     a52:	0884      	lsrs	r4, r0, #2
     a54:	b13c      	cbz	r4, a66 <rtos::Thread::Thread(void (*)(void const*), void*, osPriority, unsigned long, unsigned char*)+0x32>
     a56:	6973      	ldr	r3, [r6, #20]
     a58:	4d13      	ldr	r5, [pc, #76]	; (aa8 <rtos::Thread::Thread(void (*)(void const*), void*, osPriority, unsigned long, unsigned char*)+0x74>)
     a5a:	eb03 0084 	add.w	r0, r3, r4, lsl #2
     a5e:	f843 5b04 	str.w	r5, [r3], #4
     a62:	4283      	cmp	r3, r0
     a64:	d1fb      	bne.n	a5e <rtos::Thread::Thread(void (*)(void const*), void*, osPriority, unsigned long, unsigned char*)+0x2a>
     a66:	4611      	mov	r1, r2
     a68:	f106 0008 	add.w	r0, r6, #8
     a6c:	f000 f930 	bl	cd0 <osThreadCreate>
     a70:	6070      	str	r0, [r6, #4]
     a72:	4630      	mov	r0, r6
     a74:	b002      	add	sp, #8
     a76:	bd70      	pop	{r4, r5, r6, pc}
     a78:	0884      	lsrs	r4, r0, #2
     a7a:	f1b4 5ffe 	cmp.w	r4, #532676608	; 0x1fc00000
     a7e:	bf94      	ite	ls
     a80:	00a0      	lslls	r0, r4, #2
     a82:	f04f 30ff 	movhi.w	r0, #4294967295
     a86:	9201      	str	r2, [sp, #4]
     a88:	f002 ff6c 	bl	3964 <operator new[](unsigned int)>
     a8c:	9a01      	ldr	r2, [sp, #4]
     a8e:	6170      	str	r0, [r6, #20]
     a90:	b118      	cbz	r0, a9a <rtos::Thread::Thread(void (*)(void const*), void*, osPriority, unsigned long, unsigned char*)+0x66>
     a92:	2301      	movs	r3, #1
     a94:	f886 304c 	strb.w	r3, [r6, #76]	; 0x4c
     a98:	e7dc      	b.n	a54 <rtos::Thread::Thread(void (*)(void const*), void*, osPriority, unsigned long, unsigned char*)+0x20>
     a9a:	4804      	ldr	r0, [pc, #16]	; (aac <rtos::Thread::Thread(void (*)(void const*), void*, osPriority, unsigned long, unsigned char*)+0x78>)
     a9c:	f001 fa24 	bl	1ee8 <error>
     aa0:	9a01      	ldr	r2, [sp, #4]
     aa2:	e7f6      	b.n	a92 <rtos::Thread::Thread(void (*)(void const*), void*, osPriority, unsigned long, unsigned char*)+0x5e>
     aa4:	00006c80 	.word	0x00006c80
     aa8:	e25a2ea5 	.word	0xe25a2ea5
     aac:	00006c50 	.word	0x00006c50

00000ab0 <rtos::Thread::wait(unsigned long)>:
     ab0:	f000 b956 	b.w	d60 <osDelay>

00000ab4 <osThreadExit>:
     ab4:	b500      	push	{lr}
     ab6:	f8df c00c 	ldr.w	r12, [pc, #12]	; ac4 <osThreadExit+0x10>
     aba:	df00      	svc	0
     abc:	f8df c008 	ldr.w	r12, [pc, #8]	; ac8 <osThreadExit+0x14>
     ac0:	df00      	svc	0
     ac2:	e7fe      	b.n	ac2 <osThreadExit+0xe>
     ac4:	00000c95 	.word	0x00000c95
     ac8:	00000cad 	.word	0x00000cad

00000acc <rt_timer_insert>:
     acc:	b430      	push	{r4, r5}
     ace:	4d11      	ldr	r5, [pc, #68]	; (b14 <rt_timer_insert+0x48>)
     ad0:	682c      	ldr	r4, [r5, #0]
     ad2:	b15c      	cbz	r4, aec <rt_timer_insert+0x20>
     ad4:	8922      	ldrh	r2, [r4, #8]
     ad6:	4291      	cmp	r1, r2
     ad8:	d204      	bcs.n	ae4 <rt_timer_insert+0x18>
     ada:	e00e      	b.n	afa <rt_timer_insert+0x2e>
     adc:	891a      	ldrh	r2, [r3, #8]
     ade:	428a      	cmp	r2, r1
     ae0:	d80d      	bhi.n	afe <rt_timer_insert+0x32>
     ae2:	461c      	mov	r4, r3
     ae4:	6823      	ldr	r3, [r4, #0]
     ae6:	1a89      	subs	r1, r1, r2
     ae8:	2b00      	cmp	r3, #0
     aea:	d1f7      	bne.n	adc <rt_timer_insert+0x10>
     aec:	2300      	movs	r3, #0
     aee:	8101      	strh	r1, [r0, #8]
     af0:	6003      	str	r3, [r0, #0]
     af2:	b164      	cbz	r4, b0e <rt_timer_insert+0x42>
     af4:	6020      	str	r0, [r4, #0]
     af6:	bc30      	pop	{r4, r5}
     af8:	4770      	bx	lr
     afa:	4623      	mov	r3, r4
     afc:	2400      	movs	r4, #0
     afe:	b289      	uxth	r1, r1
     b00:	8101      	strh	r1, [r0, #8]
     b02:	891a      	ldrh	r2, [r3, #8]
     b04:	6003      	str	r3, [r0, #0]
     b06:	1a51      	subs	r1, r2, r1
     b08:	8119      	strh	r1, [r3, #8]
     b0a:	2c00      	cmp	r4, #0
     b0c:	d1f2      	bne.n	af4 <rt_timer_insert+0x28>
     b0e:	6028      	str	r0, [r5, #0]
     b10:	bc30      	pop	{r4, r5}
     b12:	4770      	bx	lr
     b14:	10000684 	.word	0x10000684

00000b18 <rt_ms2tick.part.0>:
     b18:	4a08      	ldr	r2, [pc, #32]	; (b3c <rt_ms2tick.part.0+0x24>)
     b1a:	b410      	push	{r4}
     b1c:	6812      	ldr	r2, [r2, #0]
     b1e:	f44f 737a 	mov.w	r3, #1000	; 0x3e8
     b22:	1e54      	subs	r4, r2, #1
     b24:	fb03 4000 	mla	r0, r3, r0, r4
     b28:	f64f 71fe 	movw	r1, #65534	; 0xfffe
     b2c:	fbb0 f0f2 	udiv	r0, r0, r2
     b30:	4288      	cmp	r0, r1
     b32:	bf28      	it	cs
     b34:	4608      	movcs	r0, r1
     b36:	f85d 4b04 	ldr.w	r4, [sp], #4
     b3a:	4770      	bx	lr
     b3c:	00006c8c 	.word	0x00006c8c

00000b40 <svcKernelInitialize.part.2>:
     b40:	b508      	push	{r3, lr}
     b42:	f000 ffcd 	bl	1ae0 <rt_sys_init>
     b46:	4b05      	ldr	r3, [pc, #20]	; (b5c <svcKernelInitialize.part.2+0x1c>)
     b48:	22ff      	movs	r2, #255	; 0xff
     b4a:	681b      	ldr	r3, [r3, #0]
     b4c:	2000      	movs	r0, #0
     b4e:	709a      	strb	r2, [r3, #2]
     b50:	f001 f86a 	bl	1c28 <sysThreadError>
     b54:	4b02      	ldr	r3, [pc, #8]	; (b60 <svcKernelInitialize.part.2+0x20>)
     b56:	2201      	movs	r2, #1
     b58:	701a      	strb	r2, [r3, #0]
     b5a:	bd08      	pop	{r3, pc}
     b5c:	100006bc 	.word	0x100006bc
     b60:	10000680 	.word	0x10000680

00000b64 <svcKernelInitialize>:
     b64:	b508      	push	{r3, lr}
     b66:	4b03      	ldr	r3, [pc, #12]	; (b74 <svcKernelInitialize+0x10>)
     b68:	781b      	ldrb	r3, [r3, #0]
     b6a:	b90b      	cbnz	r3, b70 <svcKernelInitialize+0xc>
     b6c:	f7ff ffe8 	bl	b40 <svcKernelInitialize.part.2>
     b70:	2000      	movs	r0, #0
     b72:	bd08      	pop	{r3, pc}
     b74:	10000680 	.word	0x10000680

00000b78 <osKernelInitialize>:
     b78:	b538      	push	{r3, r4, r5, lr}
     b7a:	f3ef 8405 	mrs	r4, IPSR
     b7e:	b10c      	cbz	r4, b84 <osKernelInitialize+0xc>
     b80:	2082      	movs	r0, #130	; 0x82
     b82:	bd38      	pop	{r3, r4, r5, pc}
     b84:	f3ef 8414 	mrs	r4, CONTROL
     b88:	f014 0401 	ands.w	r4, r4, #1
     b8c:	d104      	bne.n	b98 <osKernelInitialize+0x20>
     b8e:	4b06      	ldr	r3, [pc, #24]	; (ba8 <osKernelInitialize+0x30>)
     b90:	781d      	ldrb	r5, [r3, #0]
     b92:	b12d      	cbz	r5, ba0 <osKernelInitialize+0x28>
     b94:	4620      	mov	r0, r4
     b96:	bd38      	pop	{r3, r4, r5, pc}
     b98:	f8df c010 	ldr.w	r12, [pc, #16]	; bac <osKernelInitialize+0x34>
     b9c:	df00      	svc	0
     b9e:	bd38      	pop	{r3, r4, r5, pc}
     ba0:	f7ff ffce 	bl	b40 <svcKernelInitialize.part.2>
     ba4:	4628      	mov	r0, r5
     ba6:	bd38      	pop	{r3, r4, r5, pc}
     ba8:	10000680 	.word	0x10000680
     bac:	00000b65 	.word	0x00000b65

00000bb0 <osKernelStart>:
     bb0:	b510      	push	{r4, lr}
     bb2:	b088      	sub	sp, #32
     bb4:	f3ef 8405 	mrs	r4, IPSR
     bb8:	b114      	cbz	r4, bc0 <osKernelStart+0x10>
     bba:	2082      	movs	r0, #130	; 0x82
     bbc:	b008      	add	sp, #32
     bbe:	bd10      	pop	{r4, pc}
     bc0:	f3ef 8414 	mrs	r4, CONTROL
     bc4:	f004 0403 	and.w	r4, r4, #3
     bc8:	2c02      	cmp	r4, #2
     bca:	d01d      	beq.n	c08 <Stack_Size+0x8>
     bcc:	2c03      	cmp	r4, #3
     bce:	d014      	beq.n	bfa <osKernelStart+0x4a>
     bd0:	2c01      	cmp	r4, #1
     bd2:	d016      	beq.n	c02 <Stack_Size+0x2>
     bd4:	ac08      	add	r4, sp, #32
     bd6:	f384 8809 	msr	PSP, r4
     bda:	4c0f      	ldr	r4, [pc, #60]	; (c18 <Stack_Size+0x18>)
     bdc:	7824      	ldrb	r4, [r4, #0]
     bde:	07e4      	lsls	r4, r4, #31
     be0:	d516      	bpl.n	c10 <Stack_Size+0x10>
     be2:	2402      	movs	r4, #2
     be4:	f384 8814 	msr	CONTROL, r4
     be8:	f3bf 8f4f 	dsb	sy
     bec:	f3bf 8f6f 	isb	sy
     bf0:	f8df c028 	ldr.w	r12, [pc, #40]	; c1c <Stack_Size+0x1c>
     bf4:	df00      	svc	0
     bf6:	b008      	add	sp, #32
     bf8:	bd10      	pop	{r4, pc}
     bfa:	4c07      	ldr	r4, [pc, #28]	; (c18 <Stack_Size+0x18>)
     bfc:	7824      	ldrb	r4, [r4, #0]
     bfe:	07e4      	lsls	r4, r4, #31
     c00:	d5f6      	bpl.n	bf0 <osKernelStart+0x40>
     c02:	20ff      	movs	r0, #255	; 0xff
     c04:	b008      	add	sp, #32
     c06:	bd10      	pop	{r4, pc}
     c08:	4c03      	ldr	r4, [pc, #12]	; (c18 <Stack_Size+0x18>)
     c0a:	7824      	ldrb	r4, [r4, #0]
     c0c:	07e4      	lsls	r4, r4, #31
     c0e:	d4ef      	bmi.n	bf0 <osKernelStart+0x40>
     c10:	2403      	movs	r4, #3
     c12:	f384 8814 	msr	CONTROL, r4
     c16:	e7e7      	b.n	be8 <osKernelStart+0x38>
     c18:	00006c94 	.word	0x00006c94
     c1c:	00000f59 	.word	0x00000f59

00000c20 <svcThreadCreate>:
     c20:	e92d 43f8 	stmdb	sp!, {r3, r4, r5, r6, r7, r8, r9, lr}
     c24:	4604      	mov	r4, r0
     c26:	b350      	cbz	r0, c7e <svcThreadCreate+0x5e>
     c28:	6803      	ldr	r3, [r0, #0]
     c2a:	b343      	cbz	r3, c7e <svcThreadCreate+0x5e>
     c2c:	8885      	ldrh	r5, [r0, #4]
     c2e:	1ceb      	adds	r3, r5, #3
     c30:	b29b      	uxth	r3, r3
     c32:	2b06      	cmp	r3, #6
     c34:	d823      	bhi.n	c7e <svcThreadCreate+0x5e>
     c36:	6883      	ldr	r3, [r0, #8]
     c38:	b30b      	cbz	r3, c7e <svcThreadCreate+0x5e>
     c3a:	68c2      	ldr	r2, [r0, #12]
     c3c:	b1fa      	cbz	r2, c7e <svcThreadCreate+0x5e>
     c3e:	6343      	str	r3, [r0, #52]	; 0x34
     c40:	63c2      	str	r2, [r0, #60]	; 0x3c
     c42:	4689      	mov	r9, r1
     c44:	f000 fe60 	bl	1908 <rt_get_TID>
     c48:	4f10      	ldr	r7, [pc, #64]	; (c8c <svcThreadCreate+0x6c>)
     c4a:	f100 38ff 	add.w	r8, r0, #4294967295
     c4e:	f104 0610 	add.w	r6, r4, #16
     c52:	f847 6028 	str.w	r6, [r7, r8, lsl #2]
     c56:	1d29      	adds	r1, r5, #4
     c58:	6822      	ldr	r2, [r4, #0]
     c5a:	b2c9      	uxtb	r1, r1
     c5c:	74e0      	strb	r0, [r4, #19]
     c5e:	f8c4 902c 	str.w	r9, [r4, #44]	; 0x2c
     c62:	4630      	mov	r0, r6
     c64:	f000 fe68 	bl	1938 <rt_init_context>
     c68:	4630      	mov	r0, r6
     c6a:	f000 fe81 	bl	1970 <rt_dispatch>
     c6e:	f857 3028 	ldr.w	r3, [r7, r8, lsl #2]
     c72:	4a07      	ldr	r2, [pc, #28]	; (c90 <svcThreadCreate+0x70>)
     c74:	4618      	mov	r0, r3
     c76:	6a9b      	ldr	r3, [r3, #40]	; 0x28
     c78:	635a      	str	r2, [r3, #52]	; 0x34
     c7a:	e8bd 83f8 	ldmia.w	sp!, {r3, r4, r5, r6, r7, r8, r9, pc}
     c7e:	2080      	movs	r0, #128	; 0x80
     c80:	f000 ffd2 	bl	1c28 <sysThreadError>
     c84:	2000      	movs	r0, #0
     c86:	e8bd 83f8 	ldmia.w	sp!, {r3, r4, r5, r6, r7, r8, r9, pc}
     c8a:	bf00      	nop
     c8c:	100008fc 	.word	0x100008fc
     c90:	00000ab5 	.word	0x00000ab5

00000c94 <svcThreadGetId>:
     c94:	b508      	push	{r3, lr}
     c96:	f000 fea7 	bl	19e8 <rt_tsk_self>
     c9a:	b118      	cbz	r0, ca4 <svcThreadGetId+0x10>
     c9c:	4b02      	ldr	r3, [pc, #8]	; (ca8 <svcThreadGetId+0x14>)
     c9e:	3801      	subs	r0, #1
     ca0:	f853 0020 	ldr.w	r0, [r3, r0, lsl #2]
     ca4:	bd08      	pop	{r3, pc}
     ca6:	bf00      	nop
     ca8:	100008fc 	.word	0x100008fc

00000cac <svcThreadTerminate>:
     cac:	b130      	cbz	r0, cbc <svcThreadTerminate+0x10>
     cae:	0782      	lsls	r2, r0, #30
     cb0:	d104      	bne.n	cbc <svcThreadTerminate+0x10>
     cb2:	b508      	push	{r3, lr}
     cb4:	7803      	ldrb	r3, [r0, #0]
     cb6:	b11b      	cbz	r3, cc0 <svcThreadTerminate+0x14>
     cb8:	2080      	movs	r0, #128	; 0x80
     cba:	bd08      	pop	{r3, pc}
     cbc:	2080      	movs	r0, #128	; 0x80
     cbe:	4770      	bx	lr
     cc0:	78c0      	ldrb	r0, [r0, #3]
     cc2:	f000 fed5 	bl	1a70 <rt_tsk_delete>
     cc6:	28ff      	cmp	r0, #255	; 0xff
     cc8:	bf0c      	ite	eq
     cca:	2081      	moveq	r0, #129	; 0x81
     ccc:	2000      	movne	r0, #0
     cce:	bd08      	pop	{r3, pc}

00000cd0 <osThreadCreate>:
     cd0:	b570      	push	{r4, r5, r6, lr}
     cd2:	f3ef 8405 	mrs	r4, IPSR
     cd6:	b994      	cbnz	r4, cfe <osThreadCreate+0x2e>
     cd8:	4606      	mov	r6, r0
     cda:	460d      	mov	r5, r1
     cdc:	f3ef 8414 	mrs	r4, CONTROL
     ce0:	07e4      	lsls	r4, r4, #31
     ce2:	d402      	bmi.n	cea <osThreadCreate+0x1a>
     ce4:	4c07      	ldr	r4, [pc, #28]	; (d04 <osThreadCreate+0x34>)
     ce6:	7824      	ldrb	r4, [r4, #0]
     ce8:	b12c      	cbz	r4, cf6 <osThreadCreate+0x26>
     cea:	4630      	mov	r0, r6
     cec:	4629      	mov	r1, r5
     cee:	f8df c018 	ldr.w	r12, [pc, #24]	; d08 <osThreadCreate+0x38>
     cf2:	df00      	svc	0
     cf4:	bd70      	pop	{r4, r5, r6, pc}
     cf6:	e8bd 4070 	ldmia.w	sp!, {r4, r5, r6, lr}
     cfa:	f7ff bf91 	b.w	c20 <svcThreadCreate>
     cfe:	2000      	movs	r0, #0
     d00:	bd70      	pop	{r4, r5, r6, pc}
     d02:	bf00      	nop
     d04:	10000681 	.word	0x10000681
     d08:	00000c21 	.word	0x00000c21

00000d0c <osThreadTerminate>:
     d0c:	b510      	push	{r4, lr}
     d0e:	f3ef 8405 	mrs	r4, IPSR
     d12:	b10c      	cbz	r4, d18 <osThreadTerminate+0xc>
     d14:	2082      	movs	r0, #130	; 0x82
     d16:	bd10      	pop	{r4, pc}
     d18:	f8df c004 	ldr.w	r12, [pc, #4]	; d20 <osThreadTerminate+0x14>
     d1c:	df00      	svc	0
     d1e:	bd10      	pop	{r4, pc}
     d20:	00000cad 	.word	0x00000cad

00000d24 <svcDelay>:
     d24:	b508      	push	{r3, lr}
     d26:	b158      	cbz	r0, d40 <svcDelay+0x1c>
     d28:	1c42      	adds	r2, r0, #1
     d2a:	d010      	beq.n	d4e <svcDelay+0x2a>
     d2c:	4a0b      	ldr	r2, [pc, #44]	; (d5c <svcDelay+0x38>)
     d2e:	4290      	cmp	r0, r2
     d30:	d807      	bhi.n	d42 <svcDelay+0x1e>
     d32:	f7ff fef1 	bl	b18 <rt_ms2tick.part.0>
     d36:	b280      	uxth	r0, r0
     d38:	f000 ff6e 	bl	1c18 <rt_dly_wait>
     d3c:	2040      	movs	r0, #64	; 0x40
     d3e:	bd08      	pop	{r3, pc}
     d40:	bd08      	pop	{r3, pc}
     d42:	f64f 70fe 	movw	r0, #65534	; 0xfffe
     d46:	f000 ff67 	bl	1c18 <rt_dly_wait>
     d4a:	2040      	movs	r0, #64	; 0x40
     d4c:	bd08      	pop	{r3, pc}
     d4e:	f64f 70ff 	movw	r0, #65535	; 0xffff
     d52:	f000 ff61 	bl	1c18 <rt_dly_wait>
     d56:	2040      	movs	r0, #64	; 0x40
     d58:	bd08      	pop	{r3, pc}
     d5a:	bf00      	nop
     d5c:	003d0900 	.word	0x003d0900

00000d60 <osDelay>:
     d60:	b510      	push	{r4, lr}
     d62:	f3ef 8405 	mrs	r4, IPSR
     d66:	b10c      	cbz	r4, d6c <osDelay+0xc>
     d68:	2082      	movs	r0, #130	; 0x82
     d6a:	bd10      	pop	{r4, pc}
     d6c:	f8df c004 	ldr.w	r12, [pc, #4]	; d74 <osDelay+0x14>
     d70:	df00      	svc	0
     d72:	bd10      	pop	{r4, pc}
     d74:	00000d25 	.word	0x00000d25

00000d78 <svcTimerCall>:
     d78:	0783      	lsls	r3, r0, #30
     d7a:	d104      	bne.n	d86 <svcTimerCall+0xe>
     d7c:	b130      	cbz	r0, d8c <svcTimerCall+0x14>
     d7e:	6903      	ldr	r3, [r0, #16]
     d80:	68c1      	ldr	r1, [r0, #12]
     d82:	6818      	ldr	r0, [r3, #0]
     d84:	4770      	bx	lr
     d86:	2000      	movs	r0, #0
     d88:	4601      	mov	r1, r0
     d8a:	4770      	bx	lr
     d8c:	4601      	mov	r1, r0
     d8e:	4770      	bx	lr

00000d90 <sysTimerTick>:
     d90:	e92d 43f8 	stmdb	sp!, {r3, r4, r5, r6, r7, r8, r9, lr}
     d94:	4f17      	ldr	r7, [pc, #92]	; (df4 <sysTimerTick+0x64>)
     d96:	683d      	ldr	r5, [r7, #0]
     d98:	b1d5      	cbz	r5, dd0 <sysTimerTick+0x40>
     d9a:	892b      	ldrh	r3, [r5, #8]
     d9c:	f8df 8058 	ldr.w	r8, [pc, #88]	; df8 <sysTimerTick+0x68>
     da0:	3b01      	subs	r3, #1
     da2:	b29b      	uxth	r3, r3
     da4:	812b      	strh	r3, [r5, #8]
     da6:	f04f 0901 	mov.w	r9, #1
     daa:	b98b      	cbnz	r3, dd0 <sysTimerTick+0x40>
     dac:	682c      	ldr	r4, [r5, #0]
     dae:	f8d8 6000 	ldr.w	r6, [r8]
     db2:	603c      	str	r4, [r7, #0]
     db4:	b116      	cbz	r6, dbc <sysTimerTick+0x2c>
     db6:	7833      	ldrb	r3, [r6, #0]
     db8:	2b01      	cmp	r3, #1
     dba:	d010      	beq.n	dde <sysTimerTick+0x4e>
     dbc:	796b      	ldrb	r3, [r5, #5]
     dbe:	2b01      	cmp	r3, #1
     dc0:	d008      	beq.n	dd4 <sysTimerTick+0x44>
     dc2:	f885 9004 	strb.w	r9, [r5, #4]
     dc6:	b11c      	cbz	r4, dd0 <sysTimerTick+0x40>
     dc8:	8923      	ldrh	r3, [r4, #8]
     dca:	4625      	mov	r5, r4
     dcc:	2b00      	cmp	r3, #0
     dce:	d0ed      	beq.n	dac <sysTimerTick+0x1c>
     dd0:	e8bd 83f8 	ldmia.w	sp!, {r3, r4, r5, r6, r7, r8, r9, pc}
     dd4:	4628      	mov	r0, r5
     dd6:	8969      	ldrh	r1, [r5, #10]
     dd8:	f7ff fe78 	bl	acc <rt_timer_insert>
     ddc:	e7f3      	b.n	dc6 <sysTimerTick+0x36>
     dde:	4630      	mov	r0, r6
     de0:	f000 fb2e 	bl	1440 <rt_mbx_check>
     de4:	2800      	cmp	r0, #0
     de6:	d0e9      	beq.n	dbc <sysTimerTick+0x2c>
     de8:	4630      	mov	r0, r6
     dea:	4629      	mov	r1, r5
     dec:	f000 fb2c 	bl	1448 <isr_mbx_send>
     df0:	e7e4      	b.n	dbc <sysTimerTick+0x2c>
     df2:	bf00      	nop
     df4:	10000684 	.word	0x10000684
     df8:	100009dc 	.word	0x100009dc

00000dfc <svcMutexCreate>:
     dfc:	b510      	push	{r4, lr}
     dfe:	b140      	cbz	r0, e12 <svcMutexCreate+0x16>
     e00:	6804      	ldr	r4, [r0, #0]
     e02:	b134      	cbz	r4, e12 <svcMutexCreate+0x16>
     e04:	7823      	ldrb	r3, [r4, #0]
     e06:	b923      	cbnz	r3, e12 <svcMutexCreate+0x16>
     e08:	4620      	mov	r0, r4
     e0a:	f000 fbe1 	bl	15d0 <rt_mut_init>
     e0e:	4620      	mov	r0, r4
     e10:	bd10      	pop	{r4, pc}
     e12:	2080      	movs	r0, #128	; 0x80
     e14:	f000 ff08 	bl	1c28 <sysThreadError>
     e18:	2000      	movs	r0, #0
     e1a:	bd10      	pop	{r4, pc}

00000e1c <svcMutexWait>:
     e1c:	0782      	lsls	r2, r0, #30
     e1e:	d106      	bne.n	e2e <svcMutexWait+0x12>
     e20:	b128      	cbz	r0, e2e <svcMutexWait+0x12>
     e22:	b538      	push	{r3, r4, r5, lr}
     e24:	7803      	ldrb	r3, [r0, #0]
     e26:	2b03      	cmp	r3, #3
     e28:	d003      	beq.n	e32 <svcMutexWait+0x16>
     e2a:	2080      	movs	r0, #128	; 0x80
     e2c:	bd38      	pop	{r3, r4, r5, pc}
     e2e:	2080      	movs	r0, #128	; 0x80
     e30:	4770      	bx	lr
     e32:	1c4b      	adds	r3, r1, #1
     e34:	460d      	mov	r5, r1
     e36:	4604      	mov	r4, r0
     e38:	d015      	beq.n	e66 <svcMutexWait+0x4a>
     e3a:	4b0c      	ldr	r3, [pc, #48]	; (e6c <svcMutexWait+0x50>)
     e3c:	4299      	cmp	r1, r3
     e3e:	d80a      	bhi.n	e56 <svcMutexWait+0x3a>
     e40:	4608      	mov	r0, r1
     e42:	f7ff fe69 	bl	b18 <rt_ms2tick.part.0>
     e46:	b281      	uxth	r1, r0
     e48:	4620      	mov	r0, r4
     e4a:	f000 fc63 	bl	1714 <rt_mut_wait>
     e4e:	2801      	cmp	r0, #1
     e50:	d004      	beq.n	e5c <svcMutexWait+0x40>
     e52:	2000      	movs	r0, #0
     e54:	bd38      	pop	{r3, r4, r5, pc}
     e56:	f64f 71fe 	movw	r1, #65534	; 0xfffe
     e5a:	e7f5      	b.n	e48 <svcMutexWait+0x2c>
     e5c:	2d00      	cmp	r5, #0
     e5e:	bf14      	ite	ne
     e60:	20c1      	movne	r0, #193	; 0xc1
     e62:	2081      	moveq	r0, #129	; 0x81
     e64:	bd38      	pop	{r3, r4, r5, pc}
     e66:	f64f 71ff 	movw	r1, #65535	; 0xffff
     e6a:	e7ed      	b.n	e48 <svcMutexWait+0x2c>
     e6c:	003d0900 	.word	0x003d0900

00000e70 <svcMutexRelease>:
     e70:	0782      	lsls	r2, r0, #30
     e72:	b508      	push	{r3, lr}
     e74:	d103      	bne.n	e7e <svcMutexRelease+0xe>
     e76:	b110      	cbz	r0, e7e <svcMutexRelease+0xe>
     e78:	7803      	ldrb	r3, [r0, #0]
     e7a:	2b03      	cmp	r3, #3
     e7c:	d001      	beq.n	e82 <svcMutexRelease+0x12>
     e7e:	2080      	movs	r0, #128	; 0x80
     e80:	bd08      	pop	{r3, pc}
     e82:	f000 fbe9 	bl	1658 <rt_mut_release>
     e86:	28ff      	cmp	r0, #255	; 0xff
     e88:	bf0c      	ite	eq
     e8a:	2081      	moveq	r0, #129	; 0x81
     e8c:	2000      	movne	r0, #0
     e8e:	bd08      	pop	{r3, pc}

00000e90 <svcMutexDelete>:
     e90:	b510      	push	{r4, lr}
     e92:	f010 0403 	ands.w	r4, r0, #3
     e96:	d103      	bne.n	ea0 <svcMutexDelete+0x10>
     e98:	b110      	cbz	r0, ea0 <svcMutexDelete+0x10>
     e9a:	7803      	ldrb	r3, [r0, #0]
     e9c:	2b03      	cmp	r3, #3
     e9e:	d001      	beq.n	ea4 <svcMutexDelete+0x14>
     ea0:	2080      	movs	r0, #128	; 0x80
     ea2:	bd10      	pop	{r4, pc}
     ea4:	f000 fb9c 	bl	15e0 <rt_mut_delete>
     ea8:	4620      	mov	r0, r4
     eaa:	bd10      	pop	{r4, pc}

00000eac <osMutexCreate>:
     eac:	b530      	push	{r4, r5, lr}
     eae:	f3ef 8405 	mrs	r4, IPSR
     eb2:	b984      	cbnz	r4, ed6 <osMutexCreate+0x2a>
     eb4:	4605      	mov	r5, r0
     eb6:	f3ef 8414 	mrs	r4, CONTROL
     eba:	07e4      	lsls	r4, r4, #31
     ebc:	d402      	bmi.n	ec4 <osMutexCreate+0x18>
     ebe:	4c07      	ldr	r4, [pc, #28]	; (edc <osMutexCreate+0x30>)
     ec0:	7824      	ldrb	r4, [r4, #0]
     ec2:	b124      	cbz	r4, ece <osMutexCreate+0x22>
     ec4:	4628      	mov	r0, r5
     ec6:	f8df c018 	ldr.w	r12, [pc, #24]	; ee0 <osMutexCreate+0x34>
     eca:	df00      	svc	0
     ecc:	bd30      	pop	{r4, r5, pc}
     ece:	e8bd 4030 	ldmia.w	sp!, {r4, r5, lr}
     ed2:	f7ff bf93 	b.w	dfc <svcMutexCreate>
     ed6:	2000      	movs	r0, #0
     ed8:	bd30      	pop	{r4, r5, pc}
     eda:	bf00      	nop
     edc:	10000681 	.word	0x10000681
     ee0:	00000dfd 	.word	0x00000dfd

00000ee4 <osMutexWait>:
     ee4:	b510      	push	{r4, lr}
     ee6:	f3ef 8405 	mrs	r4, IPSR
     eea:	b10c      	cbz	r4, ef0 <osMutexWait+0xc>
     eec:	2082      	movs	r0, #130	; 0x82
     eee:	bd10      	pop	{r4, pc}
     ef0:	f8df c004 	ldr.w	r12, [pc, #4]	; ef8 <osMutexWait+0x14>
     ef4:	df00      	svc	0
     ef6:	bd10      	pop	{r4, pc}
     ef8:	00000e1d 	.word	0x00000e1d

00000efc <osMutexRelease>:
     efc:	b510      	push	{r4, lr}
     efe:	f3ef 8405 	mrs	r4, IPSR
     f02:	b10c      	cbz	r4, f08 <osMutexRelease+0xc>
     f04:	2082      	movs	r0, #130	; 0x82
     f06:	bd10      	pop	{r4, pc}
     f08:	f8df c004 	ldr.w	r12, [pc, #4]	; f10 <osMutexRelease+0x14>
     f0c:	df00      	svc	0
     f0e:	bd10      	pop	{r4, pc}
     f10:	00000e71 	.word	0x00000e71

00000f14 <osMutexDelete>:
     f14:	b510      	push	{r4, lr}
     f16:	f3ef 8405 	mrs	r4, IPSR
     f1a:	b10c      	cbz	r4, f20 <osMutexDelete+0xc>
     f1c:	2082      	movs	r0, #130	; 0x82
     f1e:	bd10      	pop	{r4, pc}
     f20:	f8df c004 	ldr.w	r12, [pc, #4]	; f28 <osMutexDelete+0x14>
     f24:	df00      	svc	0
     f26:	bd10      	pop	{r4, pc}
     f28:	00000e91 	.word	0x00000e91

00000f2c <svcMessageCreate>:
     f2c:	b510      	push	{r4, lr}
     f2e:	4604      	mov	r4, r0
     f30:	b160      	cbz	r0, f4c <svcMessageCreate+0x20>
     f32:	6801      	ldr	r1, [r0, #0]
     f34:	b151      	cbz	r1, f4c <svcMessageCreate+0x20>
     f36:	6840      	ldr	r0, [r0, #4]
     f38:	b140      	cbz	r0, f4c <svcMessageCreate+0x20>
     f3a:	7803      	ldrb	r3, [r0, #0]
     f3c:	b933      	cbnz	r3, f4c <svcMessageCreate+0x20>
     f3e:	3104      	adds	r1, #4
     f40:	0089      	lsls	r1, r1, #2
     f42:	b289      	uxth	r1, r1
     f44:	f000 fa18 	bl	1378 <rt_mbx_init>
     f48:	6860      	ldr	r0, [r4, #4]
     f4a:	bd10      	pop	{r4, pc}
     f4c:	2080      	movs	r0, #128	; 0x80
     f4e:	f000 fe6b 	bl	1c28 <sysThreadError>
     f52:	2000      	movs	r0, #0
     f54:	bd10      	pop	{r4, pc}
     f56:	bf00      	nop

00000f58 <svcKernelStart>:
     f58:	b538      	push	{r3, r4, r5, lr}
     f5a:	4d10      	ldr	r5, [pc, #64]	; (f9c <svcKernelStart+0x44>)
     f5c:	782c      	ldrb	r4, [r5, #0]
     f5e:	b9d4      	cbnz	r4, f96 <svcKernelStart+0x3e>
     f60:	4621      	mov	r1, r4
     f62:	480f      	ldr	r0, [pc, #60]	; (fa0 <svcKernelStart+0x48>)
     f64:	f7ff ffe2 	bl	f2c <svcMessageCreate>
     f68:	4b0e      	ldr	r3, [pc, #56]	; (fa4 <svcKernelStart+0x4c>)
     f6a:	4621      	mov	r1, r4
     f6c:	6018      	str	r0, [r3, #0]
     f6e:	480e      	ldr	r0, [pc, #56]	; (fa8 <svcKernelStart+0x50>)
     f70:	f7ff fe56 	bl	c20 <svcThreadCreate>
     f74:	4b0d      	ldr	r3, [pc, #52]	; (fac <svcKernelStart+0x54>)
     f76:	4621      	mov	r1, r4
     f78:	6018      	str	r0, [r3, #0]
     f7a:	4620      	mov	r0, r4
     f7c:	f000 fd3c 	bl	19f8 <rt_tsk_prio>
     f80:	4a0b      	ldr	r2, [pc, #44]	; (fb0 <svcKernelStart+0x58>)
     f82:	6813      	ldr	r3, [r2, #0]
     f84:	6a9b      	ldr	r3, [r3, #40]	; 0x28
     f86:	3320      	adds	r3, #32
     f88:	f383 8809 	msr	PSP, r3
     f8c:	6014      	str	r4, [r2, #0]
     f8e:	f000 fe25 	bl	1bdc <rt_sys_start>
     f92:	2301      	movs	r3, #1
     f94:	702b      	strb	r3, [r5, #0]
     f96:	2000      	movs	r0, #0
     f98:	bd38      	pop	{r3, r4, r5, pc}
     f9a:	bf00      	nop
     f9c:	10000681 	.word	0x10000681
     fa0:	10000110 	.word	0x10000110
     fa4:	100009dc 	.word	0x100009dc
     fa8:	10000118 	.word	0x10000118
     fac:	100011e0 	.word	0x100011e0
     fb0:	100006bc 	.word	0x100006bc

00000fb4 <svcMessageGet>:
     fb4:	b5f0      	push	{r4, r5, r6, r7, lr}
     fb6:	4604      	mov	r4, r0
     fb8:	b085      	sub	sp, #20
     fba:	b330      	cbz	r0, 100a <svcMessageGet+0x56>
     fbc:	7803      	ldrb	r3, [r0, #0]
     fbe:	2b01      	cmp	r3, #1
     fc0:	d005      	beq.n	fce <svcMessageGet+0x1a>
     fc2:	2100      	movs	r1, #0
     fc4:	460a      	mov	r2, r1
     fc6:	460b      	mov	r3, r1
     fc8:	2080      	movs	r0, #128	; 0x80
     fca:	b005      	add	sp, #20
     fcc:	bdf0      	pop	{r4, r5, r6, r7, pc}
     fce:	1c4b      	adds	r3, r1, #1
     fd0:	460d      	mov	r5, r1
     fd2:	d020      	beq.n	1016 <svcMessageGet+0x62>
     fd4:	4b18      	ldr	r3, [pc, #96]	; (1038 <svcMessageGet+0x84>)
     fd6:	4299      	cmp	r1, r3
     fd8:	d912      	bls.n	1000 <svcMessageGet+0x4c>
     fda:	f64f 72fe 	movw	r2, #65534	; 0xfffe
     fde:	4620      	mov	r0, r4
     fe0:	a902      	add	r1, sp, #8
     fe2:	f000 f9d7 	bl	1394 <rt_mbx_wait>
     fe6:	2801      	cmp	r0, #1
     fe8:	d022      	beq.n	1030 <svcMessageGet+0x7c>
     fea:	2400      	movs	r4, #0
     fec:	4626      	mov	r6, r4
     fee:	4627      	mov	r7, r4
     ff0:	2410      	movs	r4, #16
     ff2:	9d02      	ldr	r5, [sp, #8]
     ff4:	4620      	mov	r0, r4
     ff6:	4629      	mov	r1, r5
     ff8:	4632      	mov	r2, r6
     ffa:	463b      	mov	r3, r7
     ffc:	b005      	add	sp, #20
     ffe:	bdf0      	pop	{r4, r5, r6, r7, pc}
    1000:	4608      	mov	r0, r1
    1002:	f7ff fd89 	bl	b18 <rt_ms2tick.part.0>
    1006:	b282      	uxth	r2, r0
    1008:	e7e9      	b.n	fde <svcMessageGet+0x2a>
    100a:	4621      	mov	r1, r4
    100c:	4622      	mov	r2, r4
    100e:	4623      	mov	r3, r4
    1010:	2080      	movs	r0, #128	; 0x80
    1012:	b005      	add	sp, #20
    1014:	bdf0      	pop	{r4, r5, r6, r7, pc}
    1016:	a902      	add	r1, sp, #8
    1018:	f64f 72ff 	movw	r2, #65535	; 0xffff
    101c:	f000 f9ba 	bl	1394 <rt_mbx_wait>
    1020:	2801      	cmp	r0, #1
    1022:	d1e2      	bne.n	fea <svcMessageGet+0x36>
    1024:	2140      	movs	r1, #64	; 0x40
    1026:	2400      	movs	r4, #0
    1028:	4626      	mov	r6, r4
    102a:	4627      	mov	r7, r4
    102c:	460c      	mov	r4, r1
    102e:	e7e0      	b.n	ff2 <svcMessageGet+0x3e>
    1030:	2d00      	cmp	r5, #0
    1032:	d1f7      	bne.n	1024 <svcMessageGet+0x70>
    1034:	4629      	mov	r1, r5
    1036:	e7f6      	b.n	1026 <svcMessageGet+0x72>
    1038:	003d0900 	.word	0x003d0900

0000103c <osMessageGet>:
    103c:	b570      	push	{r4, r5, r6, lr}
    103e:	4604      	mov	r4, r0
    1040:	b084      	sub	sp, #16
    1042:	4615      	mov	r5, r2
    1044:	f3ef 8005 	mrs	r0, IPSR
    1048:	b948      	cbnz	r0, 105e <osMessageGet+0x22>
    104a:	4608      	mov	r0, r1
    104c:	4611      	mov	r1, r2
    104e:	f8df c050 	ldr.w	r12, [pc, #80]	; 10a0 <osMessageGet+0x64>
    1052:	df00      	svc	0
    1054:	e884 0007 	stmia.w	r4, {r0, r1, r2}
    1058:	4620      	mov	r0, r4
    105a:	b004      	add	sp, #16
    105c:	bd70      	pop	{r4, r5, r6, pc}
    105e:	b119      	cbz	r1, 1068 <osMessageGet+0x2c>
    1060:	b912      	cbnz	r2, 1068 <osMessageGet+0x2c>
    1062:	780b      	ldrb	r3, [r1, #0]
    1064:	2b01      	cmp	r3, #1
    1066:	d00a      	beq.n	107e <osMessageGet+0x42>
    1068:	ab04      	add	r3, sp, #16
    106a:	2280      	movs	r2, #128	; 0x80
    106c:	f843 2d0c 	str.w	r2, [r3, #-12]!
    1070:	e893 0007 	ldmia.w	r3, {r0, r1, r2}
    1074:	e884 0007 	stmia.w	r4, {r0, r1, r2}
    1078:	4620      	mov	r0, r4
    107a:	b004      	add	sp, #16
    107c:	bd70      	pop	{r4, r5, r6, pc}
    107e:	4608      	mov	r0, r1
    1080:	a902      	add	r1, sp, #8
    1082:	f000 f9e9 	bl	1458 <isr_mbx_receive>
    1086:	2804      	cmp	r0, #4
    1088:	bf08      	it	eq
    108a:	2310      	moveq	r3, #16
    108c:	ae01      	add	r6, sp, #4
    108e:	bf14      	ite	ne
    1090:	9501      	strne	r5, [sp, #4]
    1092:	9301      	streq	r3, [sp, #4]
    1094:	e896 0007 	ldmia.w	r6, {r0, r1, r2}
    1098:	e884 0007 	stmia.w	r4, {r0, r1, r2}
    109c:	e7dc      	b.n	1058 <osMessageGet+0x1c>
    109e:	0000      	.short	0x0000
    10a0:	00000fb5 	.word	0x00000fb5

000010a4 <osTimerThread>:
    10a4:	b500      	push	{lr}
    10a6:	4c0a      	ldr	r4, [pc, #40]	; (10d0 <osTimerThread+0x2c>)
    10a8:	b085      	sub	sp, #20
    10aa:	a801      	add	r0, sp, #4
    10ac:	6821      	ldr	r1, [r4, #0]
    10ae:	f04f 32ff 	mov.w	r2, #4294967295
    10b2:	f7ff ffc3 	bl	103c <osMessageGet>
    10b6:	9801      	ldr	r0, [sp, #4]
    10b8:	2810      	cmp	r0, #16
    10ba:	d1f6      	bne.n	10aa <osTimerThread+0x6>
    10bc:	9802      	ldr	r0, [sp, #8]
    10be:	f8df c014 	ldr.w	r12, [pc, #20]	; 10d4 <osTimerThread+0x30>
    10c2:	df00      	svc	0
    10c4:	4603      	mov	r3, r0
    10c6:	2800      	cmp	r0, #0
    10c8:	d0ef      	beq.n	10aa <osTimerThread+0x6>
    10ca:	4608      	mov	r0, r1
    10cc:	4798      	blx	r3
    10ce:	e7ec      	b.n	10aa <osTimerThread+0x6>
    10d0:	100009dc 	.word	0x100009dc
    10d4:	00000d79 	.word	0x00000d79

000010d8 <rt_evt_psh>:
    10d8:	b510      	push	{r4, lr}
    10da:	8b03      	ldrh	r3, [r0, #24]
    10dc:	7842      	ldrb	r2, [r0, #1]
    10de:	4319      	orrs	r1, r3
    10e0:	2a06      	cmp	r2, #6
    10e2:	8301      	strh	r1, [r0, #24]
    10e4:	8b43      	ldrh	r3, [r0, #26]
    10e6:	d019      	beq.n	111c <rt_evt_psh+0x44>
    10e8:	2a05      	cmp	r2, #5
    10ea:	d000      	beq.n	10ee <rt_evt_psh+0x16>
    10ec:	bd10      	pop	{r4, pc}
    10ee:	ea11 0203 	ands.w	r2, r1, r3
    10f2:	d0fb      	beq.n	10ec <rt_evt_psh+0x14>
    10f4:	8342      	strh	r2, [r0, #26]
    10f6:	4604      	mov	r4, r0
    10f8:	ea21 0103 	bic.w	r1, r1, r3
    10fc:	8301      	strh	r1, [r0, #24]
    10fe:	f000 f903 	bl	1308 <rt_rmv_dly>
    1102:	2301      	movs	r3, #1
    1104:	4620      	mov	r0, r4
    1106:	7063      	strb	r3, [r4, #1]
    1108:	2108      	movs	r1, #8
    110a:	8b62      	ldrh	r2, [r4, #26]
    110c:	f000 fe7a 	bl	1e04 <rt_ret_val2>
    1110:	4621      	mov	r1, r4
    1112:	e8bd 4010 	ldmia.w	sp!, {r4, lr}
    1116:	4804      	ldr	r0, [pc, #16]	; (1128 <rt_evt_psh+0x50>)
    1118:	f000 b808 	b.w	112c <rt_put_prio>
    111c:	ea01 0203 	and.w	r2, r1, r3
    1120:	429a      	cmp	r2, r3
    1122:	d0e8      	beq.n	10f6 <rt_evt_psh+0x1e>
    1124:	bd10      	pop	{r4, pc}
    1126:	bf00      	nop
    1128:	10000688 	.word	0x10000688

0000112c <rt_put_prio>:
    112c:	b430      	push	{r4, r5}
    112e:	7805      	ldrb	r5, [r0, #0]
    1130:	6842      	ldr	r2, [r0, #4]
    1132:	3d01      	subs	r5, #1
    1134:	2d02      	cmp	r5, #2
    1136:	bf8c      	ite	hi
    1138:	2500      	movhi	r5, #0
    113a:	2501      	movls	r5, #1
    113c:	788c      	ldrb	r4, [r1, #2]
    113e:	b1e2      	cbz	r2, 117a <rt_put_prio+0x4e>
    1140:	7893      	ldrb	r3, [r2, #2]
    1142:	42a3      	cmp	r3, r4
    1144:	d204      	bcs.n	1150 <rt_put_prio+0x24>
    1146:	e00e      	b.n	1166 <rt_put_prio+0x3a>
    1148:	7898      	ldrb	r0, [r3, #2]
    114a:	4284      	cmp	r4, r0
    114c:	d80d      	bhi.n	116a <rt_put_prio+0x3e>
    114e:	461a      	mov	r2, r3
    1150:	6853      	ldr	r3, [r2, #4]
    1152:	2b00      	cmp	r3, #0
    1154:	d1f8      	bne.n	1148 <rt_put_prio+0x1c>
    1156:	2300      	movs	r3, #0
    1158:	604b      	str	r3, [r1, #4]
    115a:	6051      	str	r1, [r2, #4]
    115c:	b955      	cbnz	r5, 1174 <rt_put_prio+0x48>
    115e:	bc30      	pop	{r4, r5}
    1160:	2300      	movs	r3, #0
    1162:	608b      	str	r3, [r1, #8]
    1164:	4770      	bx	lr
    1166:	4613      	mov	r3, r2
    1168:	4602      	mov	r2, r0
    116a:	604b      	str	r3, [r1, #4]
    116c:	6051      	str	r1, [r2, #4]
    116e:	2d00      	cmp	r5, #0
    1170:	d0f5      	beq.n	115e <rt_put_prio+0x32>
    1172:	6099      	str	r1, [r3, #8]
    1174:	608a      	str	r2, [r1, #8]
    1176:	bc30      	pop	{r4, r5}
    1178:	4770      	bx	lr
    117a:	4602      	mov	r2, r0
    117c:	e7eb      	b.n	1156 <rt_put_prio+0x2a>
    117e:	bf00      	nop

00001180 <rt_get_first>:
    1180:	6843      	ldr	r3, [r0, #4]
    1182:	7802      	ldrb	r2, [r0, #0]
    1184:	6859      	ldr	r1, [r3, #4]
    1186:	3a01      	subs	r2, #1
    1188:	2a02      	cmp	r2, #2
    118a:	6041      	str	r1, [r0, #4]
    118c:	d807      	bhi.n	119e <rt_get_first+0x1e>
    118e:	b111      	cbz	r1, 1196 <rt_get_first+0x16>
    1190:	2200      	movs	r2, #0
    1192:	6088      	str	r0, [r1, #8]
    1194:	605a      	str	r2, [r3, #4]
    1196:	2200      	movs	r2, #0
    1198:	609a      	str	r2, [r3, #8]
    119a:	4618      	mov	r0, r3
    119c:	4770      	bx	lr
    119e:	2200      	movs	r2, #0
    11a0:	605a      	str	r2, [r3, #4]
    11a2:	4618      	mov	r0, r3
    11a4:	4770      	bx	lr
    11a6:	bf00      	nop

000011a8 <rt_put_rdy_first>:
    11a8:	4b03      	ldr	r3, [pc, #12]	; (11b8 <rt_put_rdy_first+0x10>)
    11aa:	2100      	movs	r1, #0
    11ac:	685a      	ldr	r2, [r3, #4]
    11ae:	6081      	str	r1, [r0, #8]
    11b0:	6042      	str	r2, [r0, #4]
    11b2:	6058      	str	r0, [r3, #4]
    11b4:	4770      	bx	lr
    11b6:	bf00      	nop
    11b8:	10000688 	.word	0x10000688

000011bc <rt_put_dly>:
    11bc:	b430      	push	{r4, r5}
    11be:	4c16      	ldr	r4, [pc, #88]	; (1218 <rt_put_dly+0x5c>)
    11c0:	68e2      	ldr	r2, [r4, #12]
    11c2:	b31a      	cbz	r2, 120c <rt_put_dly+0x50>
    11c4:	8aa3      	ldrh	r3, [r4, #20]
    11c6:	4299      	cmp	r1, r3
    11c8:	d803      	bhi.n	11d2 <rt_put_dly+0x16>
    11ca:	e022      	b.n	1212 <rt_put_dly+0x56>
    11cc:	68d4      	ldr	r4, [r2, #12]
    11ce:	b19c      	cbz	r4, 11f8 <rt_put_dly+0x3c>
    11d0:	4622      	mov	r2, r4
    11d2:	8a94      	ldrh	r4, [r2, #20]
    11d4:	4423      	add	r3, r4
    11d6:	4299      	cmp	r1, r3
    11d8:	d8f8      	bhi.n	11cc <rt_put_dly+0x10>
    11da:	68d5      	ldr	r5, [r2, #12]
    11dc:	60c5      	str	r5, [r0, #12]
    11de:	60d0      	str	r0, [r2, #12]
    11e0:	68c4      	ldr	r4, [r0, #12]
    11e2:	6102      	str	r2, [r0, #16]
    11e4:	b104      	cbz	r4, 11e8 <rt_put_dly+0x2c>
    11e6:	6120      	str	r0, [r4, #16]
    11e8:	1a5b      	subs	r3, r3, r1
    11ea:	b29b      	uxth	r3, r3
    11ec:	8283      	strh	r3, [r0, #20]
    11ee:	8a91      	ldrh	r1, [r2, #20]
    11f0:	bc30      	pop	{r4, r5}
    11f2:	1acb      	subs	r3, r1, r3
    11f4:	8293      	strh	r3, [r2, #20]
    11f6:	4770      	bx	lr
    11f8:	b29b      	uxth	r3, r3
    11fa:	1acb      	subs	r3, r1, r3
    11fc:	2100      	movs	r1, #0
    11fe:	60c1      	str	r1, [r0, #12]
    1200:	bc30      	pop	{r4, r5}
    1202:	60d0      	str	r0, [r2, #12]
    1204:	6102      	str	r2, [r0, #16]
    1206:	8293      	strh	r3, [r2, #20]
    1208:	8281      	strh	r1, [r0, #20]
    120a:	4770      	bx	lr
    120c:	4613      	mov	r3, r2
    120e:	4622      	mov	r2, r4
    1210:	e7f3      	b.n	11fa <rt_put_dly+0x3e>
    1212:	4615      	mov	r5, r2
    1214:	4622      	mov	r2, r4
    1216:	e7e1      	b.n	11dc <rt_put_dly+0x20>
    1218:	100006a0 	.word	0x100006a0

0000121c <rt_dec_dly>:
    121c:	b5f8      	push	{r3, r4, r5, r6, r7, lr}
    121e:	4d1d      	ldr	r5, [pc, #116]	; (1294 <rt_dec_dly+0x78>)
    1220:	68ec      	ldr	r4, [r5, #12]
    1222:	2c00      	cmp	r4, #0
    1224:	d034      	beq.n	1290 <rt_dec_dly+0x74>
    1226:	8aab      	ldrh	r3, [r5, #20]
    1228:	3b01      	subs	r3, #1
    122a:	b29b      	uxth	r3, r3
    122c:	82ab      	strh	r3, [r5, #20]
    122e:	2b00      	cmp	r3, #0
    1230:	d12e      	bne.n	1290 <rt_dec_dly+0x74>
    1232:	4f19      	ldr	r7, [pc, #100]	; (1298 <rt_dec_dly+0x7c>)
    1234:	462e      	mov	r6, r5
    1236:	e008      	b.n	124a <rt_dec_dly+0x2e>
    1238:	68e3      	ldr	r3, [r4, #12]
    123a:	7060      	strb	r0, [r4, #1]
    123c:	60eb      	str	r3, [r5, #12]
    123e:	b333      	cbz	r3, 128e <rt_dec_dly+0x72>
    1240:	611e      	str	r6, [r3, #16]
    1242:	60e1      	str	r1, [r4, #12]
    1244:	6121      	str	r1, [r4, #16]
    1246:	bb22      	cbnz	r2, 1292 <rt_dec_dly+0x76>
    1248:	461c      	mov	r4, r3
    124a:	68a3      	ldr	r3, [r4, #8]
    124c:	4621      	mov	r1, r4
    124e:	4813      	ldr	r0, [pc, #76]	; (129c <rt_dec_dly+0x80>)
    1250:	f04f 0e00 	mov.w	lr, #0
    1254:	b143      	cbz	r3, 1268 <rt_dec_dly+0x4c>
    1256:	6862      	ldr	r2, [r4, #4]
    1258:	605a      	str	r2, [r3, #4]
    125a:	6862      	ldr	r2, [r4, #4]
    125c:	b112      	cbz	r2, 1264 <rt_dec_dly+0x48>
    125e:	6093      	str	r3, [r2, #8]
    1260:	f8c4 e004 	str.w	lr, [r4, #4]
    1264:	f8c4 e008 	str.w	lr, [r4, #8]
    1268:	f7ff ff60 	bl	112c <rt_put_prio>
    126c:	8aa2      	ldrh	r2, [r4, #20]
    126e:	2001      	movs	r0, #1
    1270:	82aa      	strh	r2, [r5, #20]
    1272:	7863      	ldrb	r3, [r4, #1]
    1274:	2100      	movs	r1, #0
    1276:	2b04      	cmp	r3, #4
    1278:	d1de      	bne.n	1238 <rt_dec_dly+0x1c>
    127a:	683b      	ldr	r3, [r7, #0]
    127c:	f8b4 e016 	ldrh.w	lr, [r4, #22]
    1280:	7060      	strb	r0, [r4, #1]
    1282:	4473      	add	r3, lr
    1284:	82a3      	strh	r3, [r4, #20]
    1286:	68e3      	ldr	r3, [r4, #12]
    1288:	60eb      	str	r3, [r5, #12]
    128a:	2b00      	cmp	r3, #0
    128c:	d1d8      	bne.n	1240 <rt_dec_dly+0x24>
    128e:	6123      	str	r3, [r4, #16]
    1290:	bdf8      	pop	{r3, r4, r5, r6, r7, pc}
    1292:	bdf8      	pop	{r3, r4, r5, r6, r7, pc}
    1294:	100006a0 	.word	0x100006a0
    1298:	100006f8 	.word	0x100006f8
    129c:	10000688 	.word	0x10000688

000012a0 <rt_rmv_list>:
    12a0:	6883      	ldr	r3, [r0, #8]
    12a2:	b12b      	cbz	r3, 12b0 <rt_rmv_list+0x10>
    12a4:	6842      	ldr	r2, [r0, #4]
    12a6:	605a      	str	r2, [r3, #4]
    12a8:	6842      	ldr	r2, [r0, #4]
    12aa:	b102      	cbz	r2, 12ae <rt_rmv_list+0xe>
    12ac:	6093      	str	r3, [r2, #8]
    12ae:	4770      	bx	lr
    12b0:	4a07      	ldr	r2, [pc, #28]	; (12d0 <rt_rmv_list+0x30>)
    12b2:	6853      	ldr	r3, [r2, #4]
    12b4:	4298      	cmp	r0, r3
    12b6:	d005      	beq.n	12c4 <rt_rmv_list+0x24>
    12b8:	b143      	cbz	r3, 12cc <rt_rmv_list+0x2c>
    12ba:	685a      	ldr	r2, [r3, #4]
    12bc:	4290      	cmp	r0, r2
    12be:	d002      	beq.n	12c6 <rt_rmv_list+0x26>
    12c0:	4613      	mov	r3, r2
    12c2:	e7f9      	b.n	12b8 <rt_rmv_list+0x18>
    12c4:	4613      	mov	r3, r2
    12c6:	6842      	ldr	r2, [r0, #4]
    12c8:	605a      	str	r2, [r3, #4]
    12ca:	4770      	bx	lr
    12cc:	4770      	bx	lr
    12ce:	bf00      	nop
    12d0:	10000688 	.word	0x10000688

000012d4 <rt_resort_prio>:
    12d4:	b538      	push	{r3, r4, r5, lr}
    12d6:	6884      	ldr	r4, [r0, #8]
    12d8:	b90c      	cbnz	r4, 12de <rt_resort_prio+0xa>
    12da:	e00c      	b.n	12f6 <rt_resort_prio+0x22>
    12dc:	68a4      	ldr	r4, [r4, #8]
    12de:	7823      	ldrb	r3, [r4, #0]
    12e0:	2b00      	cmp	r3, #0
    12e2:	d0fb      	beq.n	12dc <rt_resort_prio+0x8>
    12e4:	4605      	mov	r5, r0
    12e6:	f7ff ffdb 	bl	12a0 <rt_rmv_list>
    12ea:	4620      	mov	r0, r4
    12ec:	4629      	mov	r1, r5
    12ee:	e8bd 4038 	ldmia.w	sp!, {r3, r4, r5, lr}
    12f2:	f7ff bf1b 	b.w	112c <rt_put_prio>
    12f6:	7843      	ldrb	r3, [r0, #1]
    12f8:	2b01      	cmp	r3, #1
    12fa:	d000      	beq.n	12fe <rt_resort_prio+0x2a>
    12fc:	bd38      	pop	{r3, r4, r5, pc}
    12fe:	4c01      	ldr	r4, [pc, #4]	; (1304 <rt_resort_prio+0x30>)
    1300:	e7f0      	b.n	12e4 <rt_resort_prio+0x10>
    1302:	bf00      	nop
    1304:	10000688 	.word	0x10000688

00001308 <rt_rmv_dly>:
    1308:	6903      	ldr	r3, [r0, #16]
    130a:	b173      	cbz	r3, 132a <rt_rmv_dly+0x22>
    130c:	68c2      	ldr	r2, [r0, #12]
    130e:	60da      	str	r2, [r3, #12]
    1310:	68c1      	ldr	r1, [r0, #12]
    1312:	b159      	cbz	r1, 132c <rt_rmv_dly+0x24>
    1314:	8a9a      	ldrh	r2, [r3, #20]
    1316:	b430      	push	{r4, r5}
    1318:	8a85      	ldrh	r5, [r0, #20]
    131a:	2400      	movs	r4, #0
    131c:	442a      	add	r2, r5
    131e:	829a      	strh	r2, [r3, #20]
    1320:	610b      	str	r3, [r1, #16]
    1322:	2300      	movs	r3, #0
    1324:	6103      	str	r3, [r0, #16]
    1326:	60c4      	str	r4, [r0, #12]
    1328:	bc30      	pop	{r4, r5}
    132a:	4770      	bx	lr
    132c:	8299      	strh	r1, [r3, #20]
    132e:	2300      	movs	r3, #0
    1330:	6103      	str	r3, [r0, #16]
    1332:	4770      	bx	lr

00001334 <rt_psq_enq>:
    1334:	b430      	push	{r4, r5}
    1336:	4b0f      	ldr	r3, [pc, #60]	; (1374 <rt_psq_enq+0x40>)
    1338:	78dc      	ldrb	r4, [r3, #3]
    133a:	f3ef 8210 	mrs	r2, PRIMASK
    133e:	b672      	cpsid	i
    1340:	789a      	ldrb	r2, [r3, #2]
    1342:	4294      	cmp	r4, r2
    1344:	d908      	bls.n	1358 <rt_psq_enq+0x24>
    1346:	1c55      	adds	r5, r2, #1
    1348:	781a      	ldrb	r2, [r3, #0]
    134a:	709d      	strb	r5, [r3, #2]
    134c:	1c55      	adds	r5, r2, #1
    134e:	42ac      	cmp	r4, r5
    1350:	bf14      	ite	ne
    1352:	b2ed      	uxtbne	r5, r5
    1354:	2500      	moveq	r5, #0
    1356:	701d      	strb	r5, [r3, #0]
    1358:	b662      	cpsie	i
    135a:	4294      	cmp	r4, r2
    135c:	d905      	bls.n	136a <rt_psq_enq+0x36>
    135e:	bc30      	pop	{r4, r5}
    1360:	eb03 03c2 	add.w	r3, r3, r2, lsl #3
    1364:	6058      	str	r0, [r3, #4]
    1366:	6099      	str	r1, [r3, #8]
    1368:	4770      	bx	lr
    136a:	2002      	movs	r0, #2
    136c:	bc30      	pop	{r4, r5}
    136e:	f000 bc59 	b.w	1c24 <os_error>
    1372:	bf00      	nop
    1374:	10000958 	.word	0x10000958

00001378 <rt_mbx_init>:
    1378:	3910      	subs	r1, #16
    137a:	2300      	movs	r3, #0
    137c:	0889      	lsrs	r1, r1, #2
    137e:	2201      	movs	r2, #1
    1380:	81c1      	strh	r1, [r0, #14]
    1382:	7002      	strb	r2, [r0, #0]
    1384:	7043      	strb	r3, [r0, #1]
    1386:	7083      	strb	r3, [r0, #2]
    1388:	6043      	str	r3, [r0, #4]
    138a:	8103      	strh	r3, [r0, #8]
    138c:	8143      	strh	r3, [r0, #10]
    138e:	8183      	strh	r3, [r0, #12]
    1390:	4770      	bx	lr
    1392:	bf00      	nop

00001394 <rt_mbx_wait>:
    1394:	b570      	push	{r4, r5, r6, lr}
    1396:	8985      	ldrh	r5, [r0, #12]
    1398:	4604      	mov	r4, r0
    139a:	b1cd      	cbz	r5, 13d0 <rt_mbx_wait+0x3c>
    139c:	8943      	ldrh	r3, [r0, #10]
    139e:	89c2      	ldrh	r2, [r0, #14]
    13a0:	1d18      	adds	r0, r3, #4
    13a2:	3301      	adds	r3, #1
    13a4:	b29b      	uxth	r3, r3
    13a6:	f854 0020 	ldr.w	r0, [r4, r0, lsl #2]
    13aa:	429a      	cmp	r2, r3
    13ac:	6008      	str	r0, [r1, #0]
    13ae:	8163      	strh	r3, [r4, #10]
    13b0:	bf04      	itt	eq
    13b2:	2300      	moveq	r3, #0
    13b4:	8163      	strheq	r3, [r4, #10]
    13b6:	6863      	ldr	r3, [r4, #4]
    13b8:	b113      	cbz	r3, 13c0 <rt_mbx_wait+0x2c>
    13ba:	7863      	ldrb	r3, [r4, #1]
    13bc:	2b02      	cmp	r3, #2
    13be:	d01f      	beq.n	1400 <rt_mbx_wait+0x6c>
    13c0:	f3ef 8310 	mrs	r3, PRIMASK
    13c4:	b672      	cpsid	i
    13c6:	3d01      	subs	r5, #1
    13c8:	81a5      	strh	r5, [r4, #12]
    13ca:	b662      	cpsie	i
    13cc:	2000      	movs	r0, #0
    13ce:	bd70      	pop	{r4, r5, r6, pc}
    13d0:	4616      	mov	r6, r2
    13d2:	b15a      	cbz	r2, 13ec <rt_mbx_wait+0x58>
    13d4:	6843      	ldr	r3, [r0, #4]
    13d6:	b15b      	cbz	r3, 13f0 <rt_mbx_wait+0x5c>
    13d8:	4b18      	ldr	r3, [pc, #96]	; (143c <rt_mbx_wait+0xa8>)
    13da:	6819      	ldr	r1, [r3, #0]
    13dc:	f7ff fea6 	bl	112c <rt_put_prio>
    13e0:	4630      	mov	r0, r6
    13e2:	2108      	movs	r1, #8
    13e4:	f000 fae6 	bl	19b4 <rt_block>
    13e8:	2001      	movs	r0, #1
    13ea:	bd70      	pop	{r4, r5, r6, pc}
    13ec:	2001      	movs	r0, #1
    13ee:	bd70      	pop	{r4, r5, r6, pc}
    13f0:	4a12      	ldr	r2, [pc, #72]	; (143c <rt_mbx_wait+0xa8>)
    13f2:	2101      	movs	r1, #1
    13f4:	6812      	ldr	r2, [r2, #0]
    13f6:	6042      	str	r2, [r0, #4]
    13f8:	6053      	str	r3, [r2, #4]
    13fa:	6090      	str	r0, [r2, #8]
    13fc:	7041      	strb	r1, [r0, #1]
    13fe:	e7ef      	b.n	13e0 <rt_mbx_wait+0x4c>
    1400:	4620      	mov	r0, r4
    1402:	f7ff febd 	bl	1180 <rt_get_first>
    1406:	4605      	mov	r5, r0
    1408:	2100      	movs	r1, #0
    140a:	f000 fcf7 	bl	1dfc <rt_ret_val>
    140e:	8922      	ldrh	r2, [r4, #8]
    1410:	89e1      	ldrh	r1, [r4, #14]
    1412:	1c53      	adds	r3, r2, #1
    1414:	b29b      	uxth	r3, r3
    1416:	69e8      	ldr	r0, [r5, #28]
    1418:	4299      	cmp	r1, r3
    141a:	f102 0204 	add.w	r2, r2, #4
    141e:	f844 0022 	str.w	r0, [r4, r2, lsl #2]
    1422:	8123      	strh	r3, [r4, #8]
    1424:	bf04      	itt	eq
    1426:	2300      	moveq	r3, #0
    1428:	8123      	strheq	r3, [r4, #8]
    142a:	4628      	mov	r0, r5
    142c:	f7ff ff6c 	bl	1308 <rt_rmv_dly>
    1430:	4628      	mov	r0, r5
    1432:	f000 fa9d 	bl	1970 <rt_dispatch>
    1436:	2000      	movs	r0, #0
    1438:	bd70      	pop	{r4, r5, r6, pc}
    143a:	bf00      	nop
    143c:	100006bc 	.word	0x100006bc

00001440 <rt_mbx_check>:
    1440:	89c2      	ldrh	r2, [r0, #14]
    1442:	8980      	ldrh	r0, [r0, #12]
    1444:	1a10      	subs	r0, r2, r0
    1446:	4770      	bx	lr

00001448 <isr_mbx_send>:
    1448:	b508      	push	{r3, lr}
    144a:	f7ff ff73 	bl	1334 <rt_psq_enq>
    144e:	e8bd 4008 	ldmia.w	sp!, {r3, lr}
    1452:	f000 b9ab 	b.w	17ac <rt_psh_req>
    1456:	bf00      	nop

00001458 <isr_mbx_receive>:
    1458:	b538      	push	{r3, r4, r5, lr}
    145a:	8983      	ldrh	r3, [r0, #12]
    145c:	4604      	mov	r4, r0
    145e:	b1ab      	cbz	r3, 148c <isr_mbx_receive+0x34>
    1460:	8942      	ldrh	r2, [r0, #10]
    1462:	1d15      	adds	r5, r2, #4
    1464:	f850 5025 	ldr.w	r5, [r0, r5, lsl #2]
    1468:	600d      	str	r5, [r1, #0]
    146a:	7841      	ldrb	r1, [r0, #1]
    146c:	2902      	cmp	r1, #2
    146e:	d013      	beq.n	1498 <isr_mbx_receive+0x40>
    1470:	f3ef 8110 	mrs	r1, PRIMASK
    1474:	b672      	cpsid	i
    1476:	3b01      	subs	r3, #1
    1478:	81a3      	strh	r3, [r4, #12]
    147a:	b662      	cpsie	i
    147c:	3201      	adds	r2, #1
    147e:	89e3      	ldrh	r3, [r4, #14]
    1480:	b292      	uxth	r2, r2
    1482:	4293      	cmp	r3, r2
    1484:	8162      	strh	r2, [r4, #10]
    1486:	d003      	beq.n	1490 <isr_mbx_receive+0x38>
    1488:	2004      	movs	r0, #4
    148a:	bd38      	pop	{r3, r4, r5, pc}
    148c:	4618      	mov	r0, r3
    148e:	bd38      	pop	{r3, r4, r5, pc}
    1490:	2300      	movs	r3, #0
    1492:	8163      	strh	r3, [r4, #10]
    1494:	2004      	movs	r0, #4
    1496:	bd38      	pop	{r3, r4, r5, pc}
    1498:	2100      	movs	r1, #0
    149a:	f7ff ff4b 	bl	1334 <rt_psq_enq>
    149e:	f000 f985 	bl	17ac <rt_psh_req>
    14a2:	89a3      	ldrh	r3, [r4, #12]
    14a4:	8962      	ldrh	r2, [r4, #10]
    14a6:	e7e3      	b.n	1470 <isr_mbx_receive+0x18>

000014a8 <rt_mbx_psh>:
    14a8:	6842      	ldr	r2, [r0, #4]
    14aa:	b570      	push	{r4, r5, r6, lr}
    14ac:	4603      	mov	r3, r0
    14ae:	2a00      	cmp	r2, #0
    14b0:	d04f      	beq.n	1552 <rt_mbx_psh+0xaa>
    14b2:	7846      	ldrb	r6, [r0, #1]
    14b4:	460d      	mov	r5, r1
    14b6:	2e02      	cmp	r6, #2
    14b8:	4604      	mov	r4, r0
    14ba:	d025      	beq.n	1508 <rt_mbx_psh+0x60>
    14bc:	2e03      	cmp	r6, #3
    14be:	d002      	beq.n	14c6 <rt_mbx_psh+0x1e>
    14c0:	2e01      	cmp	r6, #1
    14c2:	d010      	beq.n	14e6 <rt_mbx_psh+0x3e>
    14c4:	bd70      	pop	{r4, r5, r6, pc}
    14c6:	4608      	mov	r0, r1
    14c8:	f000 f860 	bl	158c <rt_alloc_box>
    14cc:	4605      	mov	r5, r0
    14ce:	2800      	cmp	r0, #0
    14d0:	d0f8      	beq.n	14c4 <rt_mbx_psh+0x1c>
    14d2:	4620      	mov	r0, r4
    14d4:	f7ff fe54 	bl	1180 <rt_get_first>
    14d8:	4604      	mov	r4, r0
    14da:	4629      	mov	r1, r5
    14dc:	f000 fc8e 	bl	1dfc <rt_ret_val>
    14e0:	2301      	movs	r3, #1
    14e2:	7063      	strb	r3, [r4, #1]
    14e4:	e007      	b.n	14f6 <rt_mbx_psh+0x4e>
    14e6:	f7ff fe4b 	bl	1180 <rt_get_first>
    14ea:	4604      	mov	r4, r0
    14ec:	462a      	mov	r2, r5
    14ee:	2110      	movs	r1, #16
    14f0:	f000 fc88 	bl	1e04 <rt_ret_val2>
    14f4:	7066      	strb	r6, [r4, #1]
    14f6:	4620      	mov	r0, r4
    14f8:	f7ff ff06 	bl	1308 <rt_rmv_dly>
    14fc:	4621      	mov	r1, r4
    14fe:	e8bd 4070 	ldmia.w	sp!, {r4, r5, r6, lr}
    1502:	4821      	ldr	r0, [pc, #132]	; (1588 <rt_mbx_psh+0xe0>)
    1504:	f7ff be12 	b.w	112c <rt_put_prio>
    1508:	f7ff fe3a 	bl	1180 <rt_get_first>
    150c:	4605      	mov	r5, r0
    150e:	2100      	movs	r1, #0
    1510:	f000 fc74 	bl	1dfc <rt_ret_val>
    1514:	8923      	ldrh	r3, [r4, #8]
    1516:	69e9      	ldr	r1, [r5, #28]
    1518:	1d1a      	adds	r2, r3, #4
    151a:	f844 1022 	str.w	r1, [r4, r2, lsl #2]
    151e:	f3ef 8210 	mrs	r2, PRIMASK
    1522:	b672      	cpsid	i
    1524:	89a2      	ldrh	r2, [r4, #12]
    1526:	3201      	adds	r2, #1
    1528:	81a2      	strh	r2, [r4, #12]
    152a:	b662      	cpsie	i
    152c:	89e2      	ldrh	r2, [r4, #14]
    152e:	3301      	adds	r3, #1
    1530:	b29b      	uxth	r3, r3
    1532:	429a      	cmp	r2, r3
    1534:	8123      	strh	r3, [r4, #8]
    1536:	bf04      	itt	eq
    1538:	2300      	moveq	r3, #0
    153a:	8123      	strheq	r3, [r4, #8]
    153c:	2301      	movs	r3, #1
    153e:	4628      	mov	r0, r5
    1540:	706b      	strb	r3, [r5, #1]
    1542:	f7ff fee1 	bl	1308 <rt_rmv_dly>
    1546:	4629      	mov	r1, r5
    1548:	e8bd 4070 	ldmia.w	sp!, {r4, r5, r6, lr}
    154c:	480e      	ldr	r0, [pc, #56]	; (1588 <rt_mbx_psh+0xe0>)
    154e:	f7ff bded 	b.w	112c <rt_put_prio>
    1552:	8984      	ldrh	r4, [r0, #12]
    1554:	89c5      	ldrh	r5, [r0, #14]
    1556:	42ac      	cmp	r4, r5
    1558:	d210      	bcs.n	157c <rt_mbx_psh+0xd4>
    155a:	8900      	ldrh	r0, [r0, #8]
    155c:	1d06      	adds	r6, r0, #4
    155e:	f843 1026 	str.w	r1, [r3, r6, lsl #2]
    1562:	f3ef 8110 	mrs	r1, PRIMASK
    1566:	b672      	cpsid	i
    1568:	3401      	adds	r4, #1
    156a:	819c      	strh	r4, [r3, #12]
    156c:	b662      	cpsie	i
    156e:	3001      	adds	r0, #1
    1570:	b280      	uxth	r0, r0
    1572:	4285      	cmp	r5, r0
    1574:	bf14      	ite	ne
    1576:	8118      	strhne	r0, [r3, #8]
    1578:	811a      	strheq	r2, [r3, #8]
    157a:	bd70      	pop	{r4, r5, r6, pc}
    157c:	2003      	movs	r0, #3
    157e:	e8bd 4070 	ldmia.w	sp!, {r4, r5, r6, lr}
    1582:	f000 bb4f 	b.w	1c24 <os_error>
    1586:	bf00      	nop
    1588:	10000688 	.word	0x10000688

0000158c <rt_alloc_box>:
    158c:	f3ef 8310 	mrs	r3, PRIMASK
    1590:	b672      	cpsid	i
    1592:	6802      	ldr	r2, [r0, #0]
    1594:	f003 0301 	and.w	r3, r3, #1
    1598:	b10a      	cbz	r2, 159e <rt_alloc_box+0x12>
    159a:	6811      	ldr	r1, [r2, #0]
    159c:	6001      	str	r1, [r0, #0]
    159e:	b903      	cbnz	r3, 15a2 <rt_alloc_box+0x16>
    15a0:	b662      	cpsie	i
    15a2:	4610      	mov	r0, r2
    15a4:	4770      	bx	lr
    15a6:	bf00      	nop

000015a8 <rt_free_box>:
    15a8:	4281      	cmp	r1, r0
    15aa:	d30d      	bcc.n	15c8 <rt_free_box+0x20>
    15ac:	6843      	ldr	r3, [r0, #4]
    15ae:	4299      	cmp	r1, r3
    15b0:	d20a      	bcs.n	15c8 <rt_free_box+0x20>
    15b2:	f3ef 8310 	mrs	r3, PRIMASK
    15b6:	b672      	cpsid	i
    15b8:	6802      	ldr	r2, [r0, #0]
    15ba:	600a      	str	r2, [r1, #0]
    15bc:	6001      	str	r1, [r0, #0]
    15be:	f013 0001 	ands.w	r0, r3, #1
    15c2:	d103      	bne.n	15cc <rt_free_box+0x24>
    15c4:	b662      	cpsie	i
    15c6:	4770      	bx	lr
    15c8:	2001      	movs	r0, #1
    15ca:	4770      	bx	lr
    15cc:	2000      	movs	r0, #0
    15ce:	4770      	bx	lr

000015d0 <rt_mut_init>:
    15d0:	2300      	movs	r3, #0
    15d2:	2203      	movs	r2, #3
    15d4:	7002      	strb	r2, [r0, #0]
    15d6:	7043      	strb	r3, [r0, #1]
    15d8:	8043      	strh	r3, [r0, #2]
    15da:	6043      	str	r3, [r0, #4]
    15dc:	6083      	str	r3, [r0, #8]
    15de:	4770      	bx	lr

000015e0 <rt_mut_delete>:
    15e0:	8843      	ldrh	r3, [r0, #2]
    15e2:	b570      	push	{r4, r5, r6, lr}
    15e4:	4605      	mov	r5, r0
    15e6:	b14b      	cbz	r3, 15fc <rt_mut_delete+0x1c>
    15e8:	6882      	ldr	r2, [r0, #8]
    15ea:	7841      	ldrb	r1, [r0, #1]
    15ec:	4b18      	ldr	r3, [pc, #96]	; (1650 <rt_mut_delete+0x70>)
    15ee:	7091      	strb	r1, [r2, #2]
    15f0:	6880      	ldr	r0, [r0, #8]
    15f2:	681b      	ldr	r3, [r3, #0]
    15f4:	4298      	cmp	r0, r3
    15f6:	d001      	beq.n	15fc <rt_mut_delete+0x1c>
    15f8:	f7ff fe6c 	bl	12d4 <rt_resort_prio>
    15fc:	686b      	ldr	r3, [r5, #4]
    15fe:	2601      	movs	r6, #1
    1600:	b18b      	cbz	r3, 1626 <rt_mut_delete+0x46>
    1602:	4628      	mov	r0, r5
    1604:	f7ff fdbc 	bl	1180 <rt_get_first>
    1608:	4604      	mov	r4, r0
    160a:	2100      	movs	r1, #0
    160c:	f000 fbf6 	bl	1dfc <rt_ret_val>
    1610:	4620      	mov	r0, r4
    1612:	f7ff fe79 	bl	1308 <rt_rmv_dly>
    1616:	7066      	strb	r6, [r4, #1]
    1618:	4621      	mov	r1, r4
    161a:	480e      	ldr	r0, [pc, #56]	; (1654 <rt_mut_delete+0x74>)
    161c:	f7ff fd86 	bl	112c <rt_put_prio>
    1620:	686b      	ldr	r3, [r5, #4]
    1622:	2b00      	cmp	r3, #0
    1624:	d1ed      	bne.n	1602 <rt_mut_delete+0x22>
    1626:	480b      	ldr	r0, [pc, #44]	; (1654 <rt_mut_delete+0x74>)
    1628:	6843      	ldr	r3, [r0, #4]
    162a:	b16b      	cbz	r3, 1648 <rt_mut_delete+0x68>
    162c:	4c08      	ldr	r4, [pc, #32]	; (1650 <rt_mut_delete+0x70>)
    162e:	789a      	ldrb	r2, [r3, #2]
    1630:	6821      	ldr	r1, [r4, #0]
    1632:	788b      	ldrb	r3, [r1, #2]
    1634:	429a      	cmp	r2, r3
    1636:	d907      	bls.n	1648 <rt_mut_delete+0x68>
    1638:	f7ff fd78 	bl	112c <rt_put_prio>
    163c:	6823      	ldr	r3, [r4, #0]
    163e:	2201      	movs	r2, #1
    1640:	705a      	strb	r2, [r3, #1]
    1642:	2000      	movs	r0, #0
    1644:	f000 f994 	bl	1970 <rt_dispatch>
    1648:	2000      	movs	r0, #0
    164a:	7028      	strb	r0, [r5, #0]
    164c:	bd70      	pop	{r4, r5, r6, pc}
    164e:	bf00      	nop
    1650:	100006bc 	.word	0x100006bc
    1654:	10000688 	.word	0x10000688

00001658 <rt_mut_release>:
    1658:	8842      	ldrh	r2, [r0, #2]
    165a:	e92d 43f8 	stmdb	sp!, {r3, r4, r5, r6, r7, r8, r9, lr}
    165e:	b912      	cbnz	r2, 1666 <rt_mut_release+0xe>
    1660:	20ff      	movs	r0, #255	; 0xff
    1662:	e8bd 83f8 	ldmia.w	sp!, {r3, r4, r5, r6, r7, r8, r9, pc}
    1666:	4e29      	ldr	r6, [pc, #164]	; (170c <rt_mut_release+0xb4>)
    1668:	6881      	ldr	r1, [r0, #8]
    166a:	6834      	ldr	r4, [r6, #0]
    166c:	42a1      	cmp	r1, r4
    166e:	d1f7      	bne.n	1660 <rt_mut_release+0x8>
    1670:	3a01      	subs	r2, #1
    1672:	b295      	uxth	r5, r2
    1674:	8045      	strh	r5, [r0, #2]
    1676:	bb1d      	cbnz	r5, 16c0 <rt_mut_release+0x68>
    1678:	7843      	ldrb	r3, [r0, #1]
    167a:	4604      	mov	r4, r0
    167c:	708b      	strb	r3, [r1, #2]
    167e:	6847      	ldr	r7, [r0, #4]
    1680:	b39f      	cbz	r7, 16ea <rt_mut_release+0x92>
    1682:	f7ff fd7d 	bl	1180 <rt_get_first>
    1686:	4607      	mov	r7, r0
    1688:	4629      	mov	r1, r5
    168a:	f000 fbb7 	bl	1dfc <rt_ret_val>
    168e:	f04f 0801 	mov.w	r8, #1
    1692:	4638      	mov	r0, r7
    1694:	f7ff fe38 	bl	1308 <rt_rmv_dly>
    1698:	60a7      	str	r7, [r4, #8]
    169a:	f8a4 8002 	strh.w	r8, [r4, #2]
    169e:	78bb      	ldrb	r3, [r7, #2]
    16a0:	f8df 906c 	ldr.w	r9, [pc, #108]	; 1710 <rt_mut_release+0xb8>
    16a4:	7063      	strb	r3, [r4, #1]
    16a6:	6831      	ldr	r1, [r6, #0]
    16a8:	f8d9 3004 	ldr.w	r3, [r9, #4]
    16ac:	788a      	ldrb	r2, [r1, #2]
    16ae:	789b      	ldrb	r3, [r3, #2]
    16b0:	429a      	cmp	r2, r3
    16b2:	d308      	bcc.n	16c6 <rt_mut_release+0x6e>
    16b4:	4638      	mov	r0, r7
    16b6:	f000 f95b 	bl	1970 <rt_dispatch>
    16ba:	4628      	mov	r0, r5
    16bc:	e8bd 83f8 	ldmia.w	sp!, {r3, r4, r5, r6, r7, r8, r9, pc}
    16c0:	2000      	movs	r0, #0
    16c2:	e8bd 83f8 	ldmia.w	sp!, {r3, r4, r5, r6, r7, r8, r9, pc}
    16c6:	4648      	mov	r0, r9
    16c8:	f7ff fd30 	bl	112c <rt_put_prio>
    16cc:	4648      	mov	r0, r9
    16ce:	4639      	mov	r1, r7
    16d0:	f7ff fd2c 	bl	112c <rt_put_prio>
    16d4:	6833      	ldr	r3, [r6, #0]
    16d6:	4628      	mov	r0, r5
    16d8:	f883 8001 	strb.w	r8, [r3, #1]
    16dc:	f887 8001 	strb.w	r8, [r7, #1]
    16e0:	f000 f946 	bl	1970 <rt_dispatch>
    16e4:	4628      	mov	r0, r5
    16e6:	e8bd 83f8 	ldmia.w	sp!, {r3, r4, r5, r6, r7, r8, r9, pc}
    16ea:	4809      	ldr	r0, [pc, #36]	; (1710 <rt_mut_release+0xb8>)
    16ec:	6842      	ldr	r2, [r0, #4]
    16ee:	7892      	ldrb	r2, [r2, #2]
    16f0:	429a      	cmp	r2, r3
    16f2:	d9e5      	bls.n	16c0 <rt_mut_release+0x68>
    16f4:	f7ff fd1a 	bl	112c <rt_put_prio>
    16f8:	6833      	ldr	r3, [r6, #0]
    16fa:	2201      	movs	r2, #1
    16fc:	4638      	mov	r0, r7
    16fe:	705a      	strb	r2, [r3, #1]
    1700:	f000 f936 	bl	1970 <rt_dispatch>
    1704:	4638      	mov	r0, r7
    1706:	e8bd 83f8 	ldmia.w	sp!, {r3, r4, r5, r6, r7, r8, r9, pc}
    170a:	bf00      	nop
    170c:	100006bc 	.word	0x100006bc
    1710:	10000688 	.word	0x10000688

00001714 <rt_mut_wait>:
    1714:	b5f8      	push	{r3, r4, r5, r6, r7, lr}
    1716:	8843      	ldrh	r3, [r0, #2]
    1718:	b943      	cbnz	r3, 172c <rt_mut_wait+0x18>
    171a:	4a16      	ldr	r2, [pc, #88]	; (1774 <rt_mut_wait+0x60>)
    171c:	6812      	ldr	r2, [r2, #0]
    171e:	6082      	str	r2, [r0, #8]
    1720:	7892      	ldrb	r2, [r2, #2]
    1722:	7042      	strb	r2, [r0, #1]
    1724:	3301      	adds	r3, #1
    1726:	8043      	strh	r3, [r0, #2]
    1728:	2000      	movs	r0, #0
    172a:	bdf8      	pop	{r3, r4, r5, r6, r7, pc}
    172c:	4e11      	ldr	r6, [pc, #68]	; (1774 <rt_mut_wait+0x60>)
    172e:	6887      	ldr	r7, [r0, #8]
    1730:	6832      	ldr	r2, [r6, #0]
    1732:	4297      	cmp	r7, r2
    1734:	d0f6      	beq.n	1724 <rt_mut_wait+0x10>
    1736:	b1d9      	cbz	r1, 1770 <rt_mut_wait+0x5c>
    1738:	460d      	mov	r5, r1
    173a:	7893      	ldrb	r3, [r2, #2]
    173c:	7841      	ldrb	r1, [r0, #1]
    173e:	4604      	mov	r4, r0
    1740:	4299      	cmp	r1, r3
    1742:	d30f      	bcc.n	1764 <rt_mut_wait+0x50>
    1744:	6863      	ldr	r3, [r4, #4]
    1746:	b14b      	cbz	r3, 175c <rt_mut_wait+0x48>
    1748:	4620      	mov	r0, r4
    174a:	4611      	mov	r1, r2
    174c:	f7ff fcee 	bl	112c <rt_put_prio>
    1750:	4628      	mov	r0, r5
    1752:	2109      	movs	r1, #9
    1754:	f000 f92e 	bl	19b4 <rt_block>
    1758:	2001      	movs	r0, #1
    175a:	bdf8      	pop	{r3, r4, r5, r6, r7, pc}
    175c:	6062      	str	r2, [r4, #4]
    175e:	6053      	str	r3, [r2, #4]
    1760:	6094      	str	r4, [r2, #8]
    1762:	e7f5      	b.n	1750 <rt_mut_wait+0x3c>
    1764:	70bb      	strb	r3, [r7, #2]
    1766:	6880      	ldr	r0, [r0, #8]
    1768:	f7ff fdb4 	bl	12d4 <rt_resort_prio>
    176c:	6832      	ldr	r2, [r6, #0]
    176e:	e7e9      	b.n	1744 <rt_mut_wait+0x30>
    1770:	2001      	movs	r0, #1
    1772:	bdf8      	pop	{r3, r4, r5, r6, r7, pc}
    1774:	100006bc 	.word	0x100006bc

00001778 <rt_sem_psh>:
    1778:	6842      	ldr	r2, [r0, #4]
    177a:	b182      	cbz	r2, 179e <rt_sem_psh+0x26>
    177c:	b510      	push	{r4, lr}
    177e:	f7ff fcff 	bl	1180 <rt_get_first>
    1782:	4604      	mov	r4, r0
    1784:	f7ff fdc0 	bl	1308 <rt_rmv_dly>
    1788:	2101      	movs	r1, #1
    178a:	7061      	strb	r1, [r4, #1]
    178c:	4620      	mov	r0, r4
    178e:	f000 fb35 	bl	1dfc <rt_ret_val>
    1792:	4621      	mov	r1, r4
    1794:	e8bd 4010 	ldmia.w	sp!, {r4, lr}
    1798:	4803      	ldr	r0, [pc, #12]	; (17a8 <rt_sem_psh+0x30>)
    179a:	f7ff bcc7 	b.w	112c <rt_put_prio>
    179e:	8842      	ldrh	r2, [r0, #2]
    17a0:	3201      	adds	r2, #1
    17a2:	8042      	strh	r2, [r0, #2]
    17a4:	4770      	bx	lr
    17a6:	bf00      	nop
    17a8:	10000688 	.word	0x10000688

000017ac <rt_psh_req>:
    17ac:	4b05      	ldr	r3, [pc, #20]	; (17c4 <rt_psh_req+0x18>)
    17ae:	781b      	ldrb	r3, [r3, #0]
    17b0:	b11b      	cbz	r3, 17ba <rt_psh_req+0xe>
    17b2:	4b05      	ldr	r3, [pc, #20]	; (17c8 <rt_psh_req+0x1c>)
    17b4:	2201      	movs	r2, #1
    17b6:	701a      	strb	r2, [r3, #0]
    17b8:	4770      	bx	lr
    17ba:	4b04      	ldr	r3, [pc, #16]	; (17cc <rt_psh_req+0x20>)
    17bc:	f04f 5280 	mov.w	r2, #268435456	; 0x10000000
    17c0:	601a      	str	r2, [r3, #0]
    17c2:	4770      	bx	lr
    17c4:	100003e1 	.word	0x100003e1
    17c8:	100003e0 	.word	0x100003e0
    17cc:	e000ed04 	.word	0xe000ed04

000017d0 <rt_pop_req>:
    17d0:	4a19      	ldr	r2, [pc, #100]	; (1838 <rt_pop_req+0x68>)
    17d2:	b538      	push	{r3, r4, r5, lr}
    17d4:	6810      	ldr	r0, [r2, #0]
    17d6:	2301      	movs	r3, #1
    17d8:	4d18      	ldr	r5, [pc, #96]	; (183c <rt_pop_req+0x6c>)
    17da:	7043      	strb	r3, [r0, #1]
    17dc:	f7ff fce4 	bl	11a8 <rt_put_rdy_first>
    17e0:	78ab      	ldrb	r3, [r5, #2]
    17e2:	786c      	ldrb	r4, [r5, #1]
    17e4:	b993      	cbnz	r3, 180c <rt_pop_req+0x3c>
    17e6:	e01f      	b.n	1828 <rt_pop_req+0x58>
    17e8:	2b01      	cmp	r3, #1
    17ea:	d019      	beq.n	1820 <rt_pop_req+0x50>
    17ec:	f7ff ffc4 	bl	1778 <rt_sem_psh>
    17f0:	78eb      	ldrb	r3, [r5, #3]
    17f2:	3401      	adds	r4, #1
    17f4:	429c      	cmp	r4, r3
    17f6:	bf08      	it	eq
    17f8:	2400      	moveq	r4, #0
    17fa:	f3ef 8310 	mrs	r3, PRIMASK
    17fe:	b672      	cpsid	i
    1800:	78ab      	ldrb	r3, [r5, #2]
    1802:	3b01      	subs	r3, #1
    1804:	b2db      	uxtb	r3, r3
    1806:	70ab      	strb	r3, [r5, #2]
    1808:	b662      	cpsie	i
    180a:	b16b      	cbz	r3, 1828 <rt_pop_req+0x58>
    180c:	eb05 02c4 	add.w	r2, r5, r4, lsl #3
    1810:	6850      	ldr	r0, [r2, #4]
    1812:	7803      	ldrb	r3, [r0, #0]
    1814:	2b00      	cmp	r3, #0
    1816:	d1e7      	bne.n	17e8 <rt_pop_req+0x18>
    1818:	8911      	ldrh	r1, [r2, #8]
    181a:	f7ff fc5d 	bl	10d8 <rt_evt_psh>
    181e:	e7e7      	b.n	17f0 <rt_pop_req+0x20>
    1820:	6891      	ldr	r1, [r2, #8]
    1822:	f7ff fe41 	bl	14a8 <rt_mbx_psh>
    1826:	e7e3      	b.n	17f0 <rt_pop_req+0x20>
    1828:	4805      	ldr	r0, [pc, #20]	; (1840 <rt_pop_req+0x70>)
    182a:	706c      	strb	r4, [r5, #1]
    182c:	f7ff fca8 	bl	1180 <rt_get_first>
    1830:	e8bd 4038 	ldmia.w	sp!, {r3, r4, r5, lr}
    1834:	f000 b894 	b.w	1960 <rt_switch_req>
    1838:	100006bc 	.word	0x100006bc
    183c:	10000958 	.word	0x10000958
    1840:	10000688 	.word	0x10000688

00001844 <os_tick_init>:
    1844:	4b09      	ldr	r3, [pc, #36]	; (186c <os_tick_init+0x28>)
    1846:	b470      	push	{r4, r5, r6}
    1848:	4809      	ldr	r0, [pc, #36]	; (1870 <os_tick_init+0x2c>)
    184a:	681e      	ldr	r6, [r3, #0]
    184c:	4d09      	ldr	r5, [pc, #36]	; (1874 <os_tick_init+0x30>)
    184e:	4b0a      	ldr	r3, [pc, #40]	; (1878 <os_tick_init+0x34>)
    1850:	2400      	movs	r4, #0
    1852:	4a0a      	ldr	r2, [pc, #40]	; (187c <os_tick_init+0x38>)
    1854:	2107      	movs	r1, #7
    1856:	602e      	str	r6, [r5, #0]
    1858:	6004      	str	r4, [r0, #0]
    185a:	6019      	str	r1, [r3, #0]
    185c:	6813      	ldr	r3, [r2, #0]
    185e:	f04f 30ff 	mov.w	r0, #4294967295
    1862:	f043 437f 	orr.w	r3, r3, #4278190080	; 0xff000000
    1866:	6013      	str	r3, [r2, #0]
    1868:	bc70      	pop	{r4, r5, r6}
    186a:	4770      	bx	lr
    186c:	00006c9c 	.word	0x00006c9c
    1870:	e000e018 	.word	0xe000e018
    1874:	e000e014 	.word	0xe000e014
    1878:	e000e010 	.word	0xe000e010
    187c:	e000ed20 	.word	0xe000ed20

00001880 <os_tick_irqack>:
    1880:	4770      	bx	lr
    1882:	bf00      	nop

00001884 <rt_systick>:
    1884:	4a0b      	ldr	r2, [pc, #44]	; (18b4 <rt_systick+0x30>)
    1886:	b508      	push	{r3, lr}
    1888:	6810      	ldr	r0, [r2, #0]
    188a:	2301      	movs	r3, #1
    188c:	7043      	strb	r3, [r0, #1]
    188e:	f7ff fc8b 	bl	11a8 <rt_put_rdy_first>
    1892:	f000 fac7 	bl	1e24 <rt_chk_robin>
    1896:	4a08      	ldr	r2, [pc, #32]	; (18b8 <rt_systick+0x34>)
    1898:	6813      	ldr	r3, [r2, #0]
    189a:	3301      	adds	r3, #1
    189c:	6013      	str	r3, [r2, #0]
    189e:	f7ff fcbd 	bl	121c <rt_dec_dly>
    18a2:	f7ff fa75 	bl	d90 <sysTimerTick>
    18a6:	4805      	ldr	r0, [pc, #20]	; (18bc <rt_systick+0x38>)
    18a8:	f7ff fc6a 	bl	1180 <rt_get_first>
    18ac:	e8bd 4008 	ldmia.w	sp!, {r3, lr}
    18b0:	f000 b856 	b.w	1960 <rt_switch_req>
    18b4:	100006bc 	.word	0x100006bc
    18b8:	100006f8 	.word	0x100006f8
    18bc:	10000688 	.word	0x10000688

000018c0 <rt_stk_check>:
    18c0:	4b08      	ldr	r3, [pc, #32]	; (18e4 <rt_stk_check+0x24>)
    18c2:	681b      	ldr	r3, [r3, #0]
    18c4:	78da      	ldrb	r2, [r3, #3]
    18c6:	2a01      	cmp	r2, #1
    18c8:	d00a      	beq.n	18e0 <rt_stk_check+0x20>
    18ca:	6ada      	ldr	r2, [r3, #44]	; 0x2c
    18cc:	6a9b      	ldr	r3, [r3, #40]	; 0x28
    18ce:	429a      	cmp	r2, r3
    18d0:	d803      	bhi.n	18da <rt_stk_check+0x1a>
    18d2:	6812      	ldr	r2, [r2, #0]
    18d4:	4b04      	ldr	r3, [pc, #16]	; (18e8 <rt_stk_check+0x28>)
    18d6:	429a      	cmp	r2, r3
    18d8:	d002      	beq.n	18e0 <rt_stk_check+0x20>
    18da:	2001      	movs	r0, #1
    18dc:	f000 b9a2 	b.w	1c24 <os_error>
    18e0:	4770      	bx	lr
    18e2:	bf00      	nop
    18e4:	100006bc 	.word	0x100006bc
    18e8:	e25a2ea5 	.word	0xe25a2ea5

000018ec <rt_dispatch.part.0>:
    18ec:	b508      	push	{r3, lr}
    18ee:	4804      	ldr	r0, [pc, #16]	; (1900 <rt_dispatch.part.0+0x14>)
    18f0:	f7ff fc46 	bl	1180 <rt_get_first>
    18f4:	4a03      	ldr	r2, [pc, #12]	; (1904 <rt_dispatch.part.0+0x18>)
    18f6:	2302      	movs	r3, #2
    18f8:	6050      	str	r0, [r2, #4]
    18fa:	7043      	strb	r3, [r0, #1]
    18fc:	bd08      	pop	{r3, pc}
    18fe:	bf00      	nop
    1900:	10000688 	.word	0x10000688
    1904:	100006bc 	.word	0x100006bc

00001908 <rt_get_TID>:
    1908:	4b09      	ldr	r3, [pc, #36]	; (1930 <rt_get_TID+0x28>)
    190a:	8818      	ldrh	r0, [r3, #0]
    190c:	b158      	cbz	r0, 1926 <rt_get_TID+0x1e>
    190e:	4a09      	ldr	r2, [pc, #36]	; (1934 <rt_get_TID+0x2c>)
    1910:	6813      	ldr	r3, [r2, #0]
    1912:	b14b      	cbz	r3, 1928 <rt_get_TID+0x20>
    1914:	2301      	movs	r3, #1
    1916:	e002      	b.n	191e <rt_get_TID+0x16>
    1918:	f852 1f04 	ldr.w	r1, [r2, #4]!
    191c:	b129      	cbz	r1, 192a <rt_get_TID+0x22>
    191e:	3301      	adds	r3, #1
    1920:	4283      	cmp	r3, r0
    1922:	d9f9      	bls.n	1918 <rt_get_TID+0x10>
    1924:	2000      	movs	r0, #0
    1926:	4770      	bx	lr
    1928:	2301      	movs	r3, #1
    192a:	4618      	mov	r0, r3
    192c:	4770      	bx	lr
    192e:	bf00      	nop
    1930:	00006c88 	.word	0x00006c88
    1934:	100008fc 	.word	0x100008fc

00001938 <rt_init_context>:
    1938:	b430      	push	{r4, r5}
    193a:	2400      	movs	r4, #0
    193c:	2501      	movs	r5, #1
    193e:	7081      	strb	r1, [r0, #2]
    1940:	7045      	strb	r5, [r0, #1]
    1942:	7004      	strb	r4, [r0, #0]
    1944:	6044      	str	r4, [r0, #4]
    1946:	6084      	str	r4, [r0, #8]
    1948:	60c4      	str	r4, [r0, #12]
    194a:	6104      	str	r4, [r0, #16]
    194c:	8284      	strh	r4, [r0, #20]
    194e:	82c4      	strh	r4, [r0, #22]
    1950:	8304      	strh	r4, [r0, #24]
    1952:	8344      	strh	r4, [r0, #26]
    1954:	f880 4020 	strb.w	r4, [r0, #32]
    1958:	4611      	mov	r1, r2
    195a:	bc30      	pop	{r4, r5}
    195c:	f000 ba26 	b.w	1dac <rt_init_stack>

00001960 <rt_switch_req>:
    1960:	4a02      	ldr	r2, [pc, #8]	; (196c <rt_switch_req+0xc>)
    1962:	2302      	movs	r3, #2
    1964:	6050      	str	r0, [r2, #4]
    1966:	7043      	strb	r3, [r0, #1]
    1968:	4770      	bx	lr
    196a:	bf00      	nop
    196c:	100006bc 	.word	0x100006bc

00001970 <rt_dispatch>:
    1970:	b1c8      	cbz	r0, 19a6 <rt_dispatch+0x36>
    1972:	b538      	push	{r3, r4, r5, lr}
    1974:	4d0d      	ldr	r5, [pc, #52]	; (19ac <rt_dispatch+0x3c>)
    1976:	7881      	ldrb	r1, [r0, #2]
    1978:	682b      	ldr	r3, [r5, #0]
    197a:	789a      	ldrb	r2, [r3, #2]
    197c:	4291      	cmp	r1, r2
    197e:	d807      	bhi.n	1990 <rt_dispatch+0x20>
    1980:	2301      	movs	r3, #1
    1982:	7043      	strb	r3, [r0, #1]
    1984:	4601      	mov	r1, r0
    1986:	e8bd 4038 	ldmia.w	sp!, {r3, r4, r5, lr}
    198a:	4809      	ldr	r0, [pc, #36]	; (19b0 <rt_dispatch+0x40>)
    198c:	f7ff bbce 	b.w	112c <rt_put_prio>
    1990:	4604      	mov	r4, r0
    1992:	4618      	mov	r0, r3
    1994:	f7ff fc08 	bl	11a8 <rt_put_rdy_first>
    1998:	682a      	ldr	r2, [r5, #0]
    199a:	2101      	movs	r1, #1
    199c:	2302      	movs	r3, #2
    199e:	7051      	strb	r1, [r2, #1]
    19a0:	606c      	str	r4, [r5, #4]
    19a2:	7063      	strb	r3, [r4, #1]
    19a4:	bd38      	pop	{r3, r4, r5, pc}
    19a6:	f7ff bfa1 	b.w	18ec <rt_dispatch.part.0>
    19aa:	bf00      	nop
    19ac:	100006bc 	.word	0x100006bc
    19b0:	10000688 	.word	0x10000688

000019b4 <rt_block>:
    19b4:	b198      	cbz	r0, 19de <rt_block+0x2a>
    19b6:	b538      	push	{r3, r4, r5, lr}
    19b8:	f64f 73ff 	movw	r3, #65535	; 0xffff
    19bc:	4298      	cmp	r0, r3
    19be:	460d      	mov	r5, r1
    19c0:	4c07      	ldr	r4, [pc, #28]	; (19e0 <rt_block+0x2c>)
    19c2:	d003      	beq.n	19cc <rt_block+0x18>
    19c4:	4601      	mov	r1, r0
    19c6:	6820      	ldr	r0, [r4, #0]
    19c8:	f7ff fbf8 	bl	11bc <rt_put_dly>
    19cc:	6823      	ldr	r3, [r4, #0]
    19ce:	4805      	ldr	r0, [pc, #20]	; (19e4 <rt_block+0x30>)
    19d0:	705d      	strb	r5, [r3, #1]
    19d2:	f7ff fbd5 	bl	1180 <rt_get_first>
    19d6:	2302      	movs	r3, #2
    19d8:	6060      	str	r0, [r4, #4]
    19da:	7043      	strb	r3, [r0, #1]
    19dc:	bd38      	pop	{r3, r4, r5, pc}
    19de:	4770      	bx	lr
    19e0:	100006bc 	.word	0x100006bc
    19e4:	10000688 	.word	0x10000688

000019e8 <rt_tsk_self>:
    19e8:	4b02      	ldr	r3, [pc, #8]	; (19f4 <rt_tsk_self+0xc>)
    19ea:	6818      	ldr	r0, [r3, #0]
    19ec:	b100      	cbz	r0, 19f0 <rt_tsk_self+0x8>
    19ee:	78c0      	ldrb	r0, [r0, #3]
    19f0:	4770      	bx	lr
    19f2:	bf00      	nop
    19f4:	100006bc 	.word	0x100006bc

000019f8 <rt_tsk_prio>:
    19f8:	b538      	push	{r3, r4, r5, lr}
    19fa:	b948      	cbnz	r0, 1a10 <rt_tsk_prio+0x18>
    19fc:	4c18      	ldr	r4, [pc, #96]	; (1a60 <rt_tsk_prio+0x68>)
    19fe:	6823      	ldr	r3, [r4, #0]
    1a00:	7099      	strb	r1, [r3, #2]
    1a02:	4818      	ldr	r0, [pc, #96]	; (1a64 <rt_tsk_prio+0x6c>)
    1a04:	6843      	ldr	r3, [r0, #4]
    1a06:	789b      	ldrb	r3, [r3, #2]
    1a08:	428b      	cmp	r3, r1
    1a0a:	d81e      	bhi.n	1a4a <rt_tsk_prio+0x52>
    1a0c:	2000      	movs	r0, #0
    1a0e:	bd38      	pop	{r3, r4, r5, pc}
    1a10:	4b15      	ldr	r3, [pc, #84]	; (1a68 <rt_tsk_prio+0x70>)
    1a12:	881b      	ldrh	r3, [r3, #0]
    1a14:	4298      	cmp	r0, r3
    1a16:	d901      	bls.n	1a1c <rt_tsk_prio+0x24>
    1a18:	20ff      	movs	r0, #255	; 0xff
    1a1a:	bd38      	pop	{r3, r4, r5, pc}
    1a1c:	4b13      	ldr	r3, [pc, #76]	; (1a6c <rt_tsk_prio+0x74>)
    1a1e:	3801      	subs	r0, #1
    1a20:	f853 5020 	ldr.w	r5, [r3, r0, lsl #2]
    1a24:	2d00      	cmp	r5, #0
    1a26:	d0f7      	beq.n	1a18 <rt_tsk_prio+0x20>
    1a28:	4c0d      	ldr	r4, [pc, #52]	; (1a60 <rt_tsk_prio+0x68>)
    1a2a:	70a9      	strb	r1, [r5, #2]
    1a2c:	6823      	ldr	r3, [r4, #0]
    1a2e:	429d      	cmp	r5, r3
    1a30:	d0e7      	beq.n	1a02 <rt_tsk_prio+0xa>
    1a32:	4628      	mov	r0, r5
    1a34:	f7ff fc4e 	bl	12d4 <rt_resort_prio>
    1a38:	786b      	ldrb	r3, [r5, #1]
    1a3a:	2b01      	cmp	r3, #1
    1a3c:	d1e6      	bne.n	1a0c <rt_tsk_prio+0x14>
    1a3e:	4809      	ldr	r0, [pc, #36]	; (1a64 <rt_tsk_prio+0x6c>)
    1a40:	f7ff fb9e 	bl	1180 <rt_get_first>
    1a44:	f7ff ff94 	bl	1970 <rt_dispatch>
    1a48:	e7e0      	b.n	1a0c <rt_tsk_prio+0x14>
    1a4a:	6821      	ldr	r1, [r4, #0]
    1a4c:	f7ff fb6e 	bl	112c <rt_put_prio>
    1a50:	6823      	ldr	r3, [r4, #0]
    1a52:	2201      	movs	r2, #1
    1a54:	705a      	strb	r2, [r3, #1]
    1a56:	f7ff ff49 	bl	18ec <rt_dispatch.part.0>
    1a5a:	2000      	movs	r0, #0
    1a5c:	bd38      	pop	{r3, r4, r5, pc}
    1a5e:	bf00      	nop
    1a60:	100006bc 	.word	0x100006bc
    1a64:	10000688 	.word	0x10000688
    1a68:	00006c88 	.word	0x00006c88
    1a6c:	100008fc 	.word	0x100008fc

00001a70 <rt_tsk_delete>:
    1a70:	b570      	push	{r4, r5, r6, lr}
    1a72:	4d18      	ldr	r5, [pc, #96]	; (1ad4 <rt_tsk_delete+0x64>)
    1a74:	682e      	ldr	r6, [r5, #0]
    1a76:	b1d0      	cbz	r0, 1aae <rt_tsk_delete+0x3e>
    1a78:	78f3      	ldrb	r3, [r6, #3]
    1a7a:	4283      	cmp	r3, r0
    1a7c:	d017      	beq.n	1aae <rt_tsk_delete+0x3e>
    1a7e:	4b16      	ldr	r3, [pc, #88]	; (1ad8 <rt_tsk_delete+0x68>)
    1a80:	881b      	ldrh	r3, [r3, #0]
    1a82:	4298      	cmp	r0, r3
    1a84:	d901      	bls.n	1a8a <rt_tsk_delete+0x1a>
    1a86:	20ff      	movs	r0, #255	; 0xff
    1a88:	bd70      	pop	{r4, r5, r6, pc}
    1a8a:	4e14      	ldr	r6, [pc, #80]	; (1adc <rt_tsk_delete+0x6c>)
    1a8c:	1e44      	subs	r4, r0, #1
    1a8e:	f856 5024 	ldr.w	r5, [r6, r4, lsl #2]
    1a92:	2d00      	cmp	r5, #0
    1a94:	d0f7      	beq.n	1a86 <rt_tsk_delete+0x16>
    1a96:	4628      	mov	r0, r5
    1a98:	f7ff fc02 	bl	12a0 <rt_rmv_list>
    1a9c:	4628      	mov	r0, r5
    1a9e:	f7ff fc33 	bl	1308 <rt_rmv_dly>
    1aa2:	2300      	movs	r3, #0
    1aa4:	f846 3024 	str.w	r3, [r6, r4, lsl #2]
    1aa8:	4618      	mov	r0, r3
    1aaa:	62eb      	str	r3, [r5, #44]	; 0x2c
    1aac:	bd70      	pop	{r4, r5, r6, pc}
    1aae:	2400      	movs	r4, #0
    1ab0:	7074      	strb	r4, [r6, #1]
    1ab2:	f000 f8ea 	bl	1c8a <rt_get_PSP>
    1ab6:	62b0      	str	r0, [r6, #40]	; 0x28
    1ab8:	f7ff ff02 	bl	18c0 <rt_stk_check>
    1abc:	682a      	ldr	r2, [r5, #0]
    1abe:	4907      	ldr	r1, [pc, #28]	; (1adc <rt_tsk_delete+0x6c>)
    1ac0:	78d3      	ldrb	r3, [r2, #3]
    1ac2:	602c      	str	r4, [r5, #0]
    1ac4:	3b01      	subs	r3, #1
    1ac6:	f841 4023 	str.w	r4, [r1, r3, lsl #2]
    1aca:	62d4      	str	r4, [r2, #44]	; 0x2c
    1acc:	f7ff ff0e 	bl	18ec <rt_dispatch.part.0>
    1ad0:	4620      	mov	r0, r4
    1ad2:	bd70      	pop	{r4, r5, r6, pc}
    1ad4:	100006bc 	.word	0x100006bc
    1ad8:	00006c88 	.word	0x00006c88
    1adc:	100008fc 	.word	0x100008fc

00001ae0 <rt_sys_init>:
    1ae0:	b5f8      	push	{r3, r4, r5, r6, r7, lr}
    1ae2:	4b30      	ldr	r3, [pc, #192]	; (1ba4 <rt_sys_init+0xc4>)
    1ae4:	8819      	ldrh	r1, [r3, #0]
    1ae6:	b139      	cbz	r1, 1af8 <rt_sys_init+0x18>
    1ae8:	2300      	movs	r3, #0
    1aea:	4618      	mov	r0, r3
    1aec:	4a2e      	ldr	r2, [pc, #184]	; (1ba8 <rt_sys_init+0xc8>)
    1aee:	3301      	adds	r3, #1
    1af0:	4299      	cmp	r1, r3
    1af2:	f842 0b04 	str.w	r0, [r2], #4
    1af6:	d1fa      	bne.n	1aee <rt_sys_init+0xe>
    1af8:	4b2c      	ldr	r3, [pc, #176]	; (1bac <rt_sys_init+0xcc>)
    1afa:	4c2d      	ldr	r4, [pc, #180]	; (1bb0 <rt_sys_init+0xd0>)
    1afc:	881f      	ldrh	r7, [r3, #0]
    1afe:	4a2d      	ldr	r2, [pc, #180]	; (1bb4 <rt_sys_init+0xd4>)
    1b00:	2500      	movs	r5, #0
    1b02:	2301      	movs	r3, #1
    1b04:	4620      	mov	r0, r4
    1b06:	26ff      	movs	r6, #255	; 0xff
    1b08:	492b      	ldr	r1, [pc, #172]	; (1bb8 <rt_sys_init+0xd8>)
    1b0a:	6267      	str	r7, [r4, #36]	; 0x24
    1b0c:	70e6      	strb	r6, [r4, #3]
    1b0e:	62e2      	str	r2, [r4, #44]	; 0x2c
    1b10:	7063      	strb	r3, [r4, #1]
    1b12:	7025      	strb	r5, [r4, #0]
    1b14:	70a5      	strb	r5, [r4, #2]
    1b16:	6065      	str	r5, [r4, #4]
    1b18:	60a5      	str	r5, [r4, #8]
    1b1a:	60e5      	str	r5, [r4, #12]
    1b1c:	6125      	str	r5, [r4, #16]
    1b1e:	82a5      	strh	r5, [r4, #20]
    1b20:	82e5      	strh	r5, [r4, #22]
    1b22:	8325      	strh	r5, [r4, #24]
    1b24:	8365      	strh	r5, [r4, #26]
    1b26:	f884 5020 	strb.w	r5, [r4, #32]
    1b2a:	f000 f93f 	bl	1dac <rt_init_stack>
    1b2e:	4b23      	ldr	r3, [pc, #140]	; (1bbc <rt_sys_init+0xdc>)
    1b30:	4a23      	ldr	r2, [pc, #140]	; (1bc0 <rt_sys_init+0xe0>)
    1b32:	781e      	ldrb	r6, [r3, #0]
    1b34:	f8df e0a0 	ldr.w	lr, [pc, #160]	; 1bd8 <rt_sys_init+0xf8>
    1b38:	4b22      	ldr	r3, [pc, #136]	; (1bc4 <rt_sys_init+0xe4>)
    1b3a:	4823      	ldr	r0, [pc, #140]	; (1bc8 <rt_sys_init+0xe8>)
    1b3c:	2702      	movs	r7, #2
    1b3e:	f8ce 4000 	str.w	r4, [lr]
    1b42:	7067      	strb	r7, [r4, #1]
    1b44:	2104      	movs	r1, #4
    1b46:	70d6      	strb	r6, [r2, #3]
    1b48:	7015      	strb	r5, [r2, #0]
    1b4a:	7055      	strb	r5, [r2, #1]
    1b4c:	7019      	strb	r1, [r3, #0]
    1b4e:	60dd      	str	r5, [r3, #12]
    1b50:	611d      	str	r5, [r3, #16]
    1b52:	829d      	strh	r5, [r3, #20]
    1b54:	6045      	str	r5, [r0, #4]
    1b56:	7001      	strb	r1, [r0, #0]
    1b58:	f000 f958 	bl	1e0c <rt_init_robin>
    1b5c:	4b1b      	ldr	r3, [pc, #108]	; (1bcc <rt_sys_init+0xec>)
    1b5e:	681a      	ldr	r2, [r3, #0]
    1b60:	f442 027f 	orr.w	r2, r2, #16711680	; 0xff0000
    1b64:	601a      	str	r2, [r3, #0]
    1b66:	681b      	ldr	r3, [r3, #0]
    1b68:	021b      	lsls	r3, r3, #8
    1b6a:	f003 437f 	and.w	r3, r3, #4278190080	; 0xff000000
    1b6e:	43db      	mvns	r3, r3
    1b70:	fab3 f383 	clz	r3, r3
    1b74:	4a16      	ldr	r2, [pc, #88]	; (1bd0 <rt_sys_init+0xf0>)
    1b76:	b2db      	uxtb	r3, r3
    1b78:	6812      	ldr	r2, [r2, #0]
    1b7a:	f1c3 0308 	rsb	r3, r3, #8
    1b7e:	f3c2 2202 	ubfx	r2, r2, #8, #3
    1b82:	4293      	cmp	r3, r2
    1b84:	dc00      	bgt.n	1b88 <rt_sys_init+0xa8>
    1b86:	1c53      	adds	r3, r2, #1
    1b88:	4812      	ldr	r0, [pc, #72]	; (1bd4 <rt_sys_init+0xf4>)
    1b8a:	f06f 7180 	mvn.w	r1, #16777216	; 0x1000000
    1b8e:	6802      	ldr	r2, [r0, #0]
    1b90:	fa01 f303 	lsl.w	r3, r1, r3
    1b94:	f022 427f 	bic.w	r2, r2, #4278190080	; 0xff000000
    1b98:	f003 437f 	and.w	r3, r3, #4278190080	; 0xff000000
    1b9c:	4313      	orrs	r3, r2
    1b9e:	6003      	str	r3, [r0, #0]
    1ba0:	bdf8      	pop	{r3, r4, r5, r6, r7, pc}
    1ba2:	bf00      	nop
    1ba4:	00006c88 	.word	0x00006c88
    1ba8:	100008fc 	.word	0x100008fc
    1bac:	00006c96 	.word	0x00006c96
    1bb0:	100006c4 	.word	0x100006c4
    1bb4:	100006fc 	.word	0x100006fc
    1bb8:	00001c21 	.word	0x00001c21
    1bbc:	00006c98 	.word	0x00006c98
    1bc0:	10000958 	.word	0x10000958
    1bc4:	100006a0 	.word	0x100006a0
    1bc8:	10000688 	.word	0x10000688
    1bcc:	e000ed20 	.word	0xe000ed20
    1bd0:	e000ed0c 	.word	0xe000ed0c
    1bd4:	e000ed1c 	.word	0xe000ed1c
    1bd8:	100006bc 	.word	0x100006bc

00001bdc <rt_sys_start>:
    1bdc:	b508      	push	{r3, lr}
    1bde:	f7ff fe31 	bl	1844 <os_tick_init>
    1be2:	4b0c      	ldr	r3, [pc, #48]	; (1c14 <rt_sys_start+0x38>)
    1be4:	2800      	cmp	r0, #0
    1be6:	6018      	str	r0, [r3, #0]
    1be8:	db12      	blt.n	1c10 <rt_sys_start+0x34>
    1bea:	f100 4060 	add.w	r0, r0, #3758096384	; 0xe0000000
    1bee:	22ff      	movs	r2, #255	; 0xff
    1bf0:	f500 4064 	add.w	r0, r0, #58368	; 0xe400
    1bf4:	7002      	strb	r2, [r0, #0]
    1bf6:	681a      	ldr	r2, [r3, #0]
    1bf8:	2101      	movs	r1, #1
    1bfa:	1153      	asrs	r3, r2, #5
    1bfc:	009b      	lsls	r3, r3, #2
    1bfe:	f103 4360 	add.w	r3, r3, #3758096384	; 0xe0000000
    1c02:	f002 021f 	and.w	r2, r2, #31
    1c06:	f503 4361 	add.w	r3, r3, #57600	; 0xe100
    1c0a:	fa01 f202 	lsl.w	r2, r1, r2
    1c0e:	601a      	str	r2, [r3, #0]
    1c10:	bd08      	pop	{r3, pc}
    1c12:	bf00      	nop
    1c14:	100006b8 	.word	0x100006b8

00001c18 <rt_dly_wait>:
    1c18:	2103      	movs	r1, #3
    1c1a:	f7ff becb 	b.w	19b4 <rt_block>
    1c1e:	bf00      	nop

00001c20 <os_idle_demon>:
    1c20:	e7fe      	b.n	1c20 <os_idle_demon>
    1c22:	bf00      	nop

00001c24 <os_error>:
    1c24:	f000 b926 	b.w	1e74 <mbed_die>

00001c28 <sysThreadError>:
    1c28:	b900      	cbnz	r0, 1c2c <sysThreadError+0x4>
    1c2a:	4770      	bx	lr
    1c2c:	f000 b922 	b.w	1e74 <mbed_die>

00001c30 <set_main_stack>:
    1c30:	4904      	ldr	r1, [pc, #16]	; (1c44 <set_main_stack+0x14>)
    1c32:	4a05      	ldr	r2, [pc, #20]	; (1c48 <set_main_stack+0x18>)
    1c34:	f1c1 5380 	rsb	r3, r1, #268435456	; 0x10000000
    1c38:	f503 43f8 	add.w	r3, r3, #31744	; 0x7c00
    1c3c:	6093      	str	r3, [r2, #8]
    1c3e:	60d1      	str	r1, [r2, #12]
    1c40:	4770      	bx	lr
    1c42:	bf00      	nop
    1c44:	100011f8 	.word	0x100011f8
    1c48:	100000cc 	.word	0x100000cc

00001c4c <software_init_hook>:
    1c4c:	2000      	movs	r0, #0
    1c4e:	2100      	movs	r1, #0
    1c50:	4604      	mov	r4, r0
    1c52:	460d      	mov	r5, r1
    1c54:	4809      	ldr	r0, [pc, #36]	; (1c7c <software_init_hook+0x30>)
    1c56:	f002 fdc3 	bl	47e0 <atexit>
    1c5a:	f003 f93d 	bl	4ed8 <__libc_init_array>
    1c5e:	4620      	mov	r0, r4
    1c60:	4629      	mov	r1, r5
    1c62:	f7fe ff89 	bl	b78 <osKernelInitialize>
    1c66:	f7ff ffe3 	bl	1c30 <set_main_stack>
    1c6a:	4805      	ldr	r0, [pc, #20]	; (1c80 <software_init_hook+0x34>)
    1c6c:	2100      	movs	r1, #0
    1c6e:	f7ff f82f 	bl	cd0 <osThreadCreate>
    1c72:	f7fe ff9d 	bl	bb0 <osKernelStart>
    1c76:	f002 fdcd 	bl	4814 <exit>
    1c7a:	0000      	.short	0x0000
    1c7c:	00004c31 	.word	0x00004c31
    1c80:	100000cc 	.word	0x100000cc

00001c84 <rt_set_PSP>:
    1c84:	f380 8809 	msr	PSP, r0
    1c88:	4770      	bx	lr

00001c8a <rt_get_PSP>:
    1c8a:	f3ef 8009 	mrs	r0, PSP
    1c8e:	4770      	bx	lr

00001c90 <os_set_env>:
    1c90:	4668      	mov	r0, sp
    1c92:	f380 8809 	msr	PSP, r0
    1c96:	483f      	ldr	r0, [pc, #252]	; (1d94 <OS_Tick_Handler+0xc>)
    1c98:	7800      	ldrb	r0, [r0, #0]
    1c9a:	07c0      	lsls	r0, r0, #31
    1c9c:	bf14      	ite	ne
    1c9e:	2002      	movne	r0, #2
    1ca0:	2003      	moveq	r0, #3
    1ca2:	f380 8814 	msr	CONTROL, r0
    1ca6:	4770      	bx	lr

00001ca8 <_alloc_box>:
    1ca8:	f8df c0ec 	ldr.w	r12, [pc, #236]	; 1d98 <OS_Tick_Handler+0x10>
    1cac:	f3ef 8305 	mrs	r3, IPSR
    1cb0:	061b      	lsls	r3, r3, #24
    1cb2:	bf18      	it	ne
    1cb4:	4760      	bxne	r12
    1cb6:	f3ef 8314 	mrs	r3, CONTROL
    1cba:	07db      	lsls	r3, r3, #31
    1cbc:	bf08      	it	eq
    1cbe:	4760      	bxeq	r12
    1cc0:	df00      	svc	0
    1cc2:	4770      	bx	lr

00001cc4 <_free_box>:
    1cc4:	f8df c0d4 	ldr.w	r12, [pc, #212]	; 1d9c <OS_Tick_Handler+0x14>
    1cc8:	f3ef 8305 	mrs	r3, IPSR
    1ccc:	061b      	lsls	r3, r3, #24
    1cce:	bf18      	it	ne
    1cd0:	4760      	bxne	r12
    1cd2:	f3ef 8314 	mrs	r3, CONTROL
    1cd6:	07db      	lsls	r3, r3, #31
    1cd8:	bf08      	it	eq
    1cda:	4760      	bxeq	r12
    1cdc:	df00      	svc	0
    1cde:	4770      	bx	lr

00001ce0 <SVC_Handler>:
    1ce0:	f3ef 8009 	mrs	r0, PSP
    1ce4:	6981      	ldr	r1, [r0, #24]
    1ce6:	f811 1c02 	ldrb.w	r1, [r1, #-2]
    1cea:	b9f1      	cbnz	r1, 1d2a <SVC_User>
    1cec:	e890 100f 	ldmia.w	r0, {r0, r1, r2, r3, r12}
    1cf0:	47e0      	blx	r12
    1cf2:	f3ef 8c09 	mrs	r12, PSP
    1cf6:	e88c 0007 	stmia.w	r12, {r0, r1, r2}
    1cfa:	4b29      	ldr	r3, [pc, #164]	; (1da0 <OS_Tick_Handler+0x18>)
    1cfc:	e893 0006 	ldmia.w	r3, {r1, r2}
    1d00:	4291      	cmp	r1, r2
    1d02:	d00f      	beq.n	1d24 <SVC_Exit>
    1d04:	b139      	cbz	r1, 1d16 <SVC_Next>
    1d06:	e92c 0ff0 	stmdb	r12!, {r4, r5, r6, r7, r8, r9, r10, r11}
    1d0a:	f8c1 c028 	str.w	r12, [r1, #40]	; 0x28
    1d0e:	b40c      	push	{r2, r3}
    1d10:	f7ff fdd6 	bl	18c0 <rt_stk_check>
    1d14:	bc0c      	pop	{r2, r3}

00001d16 <SVC_Next>:
    1d16:	601a      	str	r2, [r3, #0]
    1d18:	f8d2 c028 	ldr.w	r12, [r2, #40]	; 0x28
    1d1c:	e8bc 0ff0 	ldmia.w	r12!, {r4, r5, r6, r7, r8, r9, r10, r11}
    1d20:	f38c 8809 	msr	PSP, r12

00001d24 <SVC_Exit>:
    1d24:	f06f 0e02 	mvn.w	lr, #2
    1d28:	4770      	bx	lr

00001d2a <SVC_User>:
    1d2a:	b510      	push	{r4, lr}
    1d2c:	4a1d      	ldr	r2, [pc, #116]	; (1da4 <OS_Tick_Handler+0x1c>)
    1d2e:	6812      	ldr	r2, [r2, #0]
    1d30:	4291      	cmp	r1, r2
    1d32:	d809      	bhi.n	1d48 <SVC_Done>
    1d34:	4c1c      	ldr	r4, [pc, #112]	; (1da8 <OS_Tick_Handler+0x20>)
    1d36:	f854 4021 	ldr.w	r4, [r4, r1, lsl #2]
    1d3a:	e890 100f 	ldmia.w	r0, {r0, r1, r2, r3, r12}
    1d3e:	47a0      	blx	r4
    1d40:	f3ef 8c09 	mrs	r12, PSP
    1d44:	e88c 000f 	stmia.w	r12, {r0, r1, r2, r3}

00001d48 <SVC_Done>:
    1d48:	bd10      	pop	{r4, pc}

00001d4a <PendSV_Handler>:
    1d4a:	f7ff fd41 	bl	17d0 <rt_pop_req>

00001d4e <Sys_Switch>:
    1d4e:	4b14      	ldr	r3, [pc, #80]	; (1da0 <OS_Tick_Handler+0x18>)
    1d50:	e893 0006 	ldmia.w	r3, {r1, r2}
    1d54:	4291      	cmp	r1, r2
    1d56:	d010      	beq.n	1d7a <Sys_Exit>
    1d58:	f3ef 8c09 	mrs	r12, PSP
    1d5c:	e92c 0ff0 	stmdb	r12!, {r4, r5, r6, r7, r8, r9, r10, r11}
    1d60:	f8c1 c028 	str.w	r12, [r1, #40]	; 0x28
    1d64:	b40c      	push	{r2, r3}
    1d66:	f7ff fdab 	bl	18c0 <rt_stk_check>
    1d6a:	bc0c      	pop	{r2, r3}
    1d6c:	601a      	str	r2, [r3, #0]
    1d6e:	f8d2 c028 	ldr.w	r12, [r2, #40]	; 0x28
    1d72:	e8bc 0ff0 	ldmia.w	r12!, {r4, r5, r6, r7, r8, r9, r10, r11}
    1d76:	f38c 8809 	msr	PSP, r12

00001d7a <Sys_Exit>:
    1d7a:	f06f 0e02 	mvn.w	lr, #2
    1d7e:	4770      	bx	lr

00001d80 <SysTick_Handler>:
    1d80:	f7ff fd80 	bl	1884 <rt_systick>
    1d84:	f7ff bfe3 	b.w	1d4e <Sys_Switch>

00001d88 <OS_Tick_Handler>:
    1d88:	f7ff fd7a 	bl	1880 <os_tick_irqack>
    1d8c:	f7ff fd7a 	bl	1884 <rt_systick>
    1d90:	f7ff bfdd 	b.w	1d4e <Sys_Switch>
    1d94:	00006c94 	.word	0x00006c94
    1d98:	0000158d 	.word	0x0000158d
    1d9c:	000015a9 	.word	0x000015a9
    1da0:	100006bc 	.word	0x100006bc
    1da4:	00000000 	.word	0x00000000
    1da8:	fffffffc 	.word	0xfffffffc

00001dac <rt_init_stack>:
    1dac:	b4f0      	push	{r4, r5, r6, r7}
    1dae:	6a45      	ldr	r5, [r0, #36]	; 0x24
    1db0:	6ac6      	ldr	r6, [r0, #44]	; 0x2c
    1db2:	f025 0503 	bic.w	r5, r5, #3
    1db6:	4435      	add	r5, r6
    1db8:	076b      	lsls	r3, r5, #29
    1dba:	bf48      	it	mi
    1dbc:	3d04      	submi	r5, #4
    1dbe:	f04f 7380 	mov.w	r3, #16777216	; 0x1000000
    1dc2:	e905 000a 	stmdb	r5, {r1, r3}
    1dc6:	f1a5 0740 	sub.w	r7, r5, #64	; 0x40
    1dca:	f1a5 0344 	sub.w	r3, r5, #68	; 0x44
    1dce:	f1a5 040c 	sub.w	r4, r5, #12
    1dd2:	2200      	movs	r2, #0
    1dd4:	f843 2f04 	str.w	r2, [r3, #4]!
    1dd8:	42a3      	cmp	r3, r4
    1dda:	d1fb      	bne.n	1dd4 <rt_init_stack+0x28>
    1ddc:	69c3      	ldr	r3, [r0, #28]
    1dde:	f845 3c20 	str.w	r3, [r5, #-32]
    1de2:	78c3      	ldrb	r3, [r0, #3]
    1de4:	6287      	str	r7, [r0, #40]	; 0x28
    1de6:	2b01      	cmp	r3, #1
    1de8:	bf18      	it	ne
    1dea:	4b03      	ldrne	r3, [pc, #12]	; (1df8 <rt_init_stack+0x4c>)
    1dec:	6301      	str	r1, [r0, #48]	; 0x30
    1dee:	bf18      	it	ne
    1df0:	6033      	strne	r3, [r6, #0]
    1df2:	bcf0      	pop	{r4, r5, r6, r7}
    1df4:	4770      	bx	lr
    1df6:	bf00      	nop
    1df8:	e25a2ea5 	.word	0xe25a2ea5

00001dfc <rt_ret_val>:
    1dfc:	6a83      	ldr	r3, [r0, #40]	; 0x28
    1dfe:	6219      	str	r1, [r3, #32]
    1e00:	4770      	bx	lr
    1e02:	bf00      	nop

00001e04 <rt_ret_val2>:
    1e04:	6a83      	ldr	r3, [r0, #40]	; 0x28
    1e06:	6219      	str	r1, [r3, #32]
    1e08:	625a      	str	r2, [r3, #36]	; 0x24
    1e0a:	4770      	bx	lr

00001e0c <rt_init_robin>:
    1e0c:	4a03      	ldr	r2, [pc, #12]	; (1e1c <rt_init_robin+0x10>)
    1e0e:	4b04      	ldr	r3, [pc, #16]	; (1e20 <rt_init_robin+0x14>)
    1e10:	6811      	ldr	r1, [r2, #0]
    1e12:	2200      	movs	r2, #0
    1e14:	80d9      	strh	r1, [r3, #6]
    1e16:	601a      	str	r2, [r3, #0]
    1e18:	4770      	bx	lr
    1e1a:	bf00      	nop
    1e1c:	00006c90 	.word	0x00006c90
    1e20:	100011e4 	.word	0x100011e4

00001e24 <rt_chk_robin>:
    1e24:	b508      	push	{r3, lr}
    1e26:	4a10      	ldr	r2, [pc, #64]	; (1e68 <rt_chk_robin+0x44>)
    1e28:	4b10      	ldr	r3, [pc, #64]	; (1e6c <rt_chk_robin+0x48>)
    1e2a:	4911      	ldr	r1, [pc, #68]	; (1e70 <rt_chk_robin+0x4c>)
    1e2c:	6858      	ldr	r0, [r3, #4]
    1e2e:	6813      	ldr	r3, [r2, #0]
    1e30:	4283      	cmp	r3, r0
    1e32:	d015      	beq.n	1e60 <rt_chk_robin+0x3c>
    1e34:	88d3      	ldrh	r3, [r2, #6]
    1e36:	6809      	ldr	r1, [r1, #0]
    1e38:	3b01      	subs	r3, #1
    1e3a:	440b      	add	r3, r1
    1e3c:	b29b      	uxth	r3, r3
    1e3e:	6010      	str	r0, [r2, #0]
    1e40:	8093      	strh	r3, [r2, #4]
    1e42:	b289      	uxth	r1, r1
    1e44:	4299      	cmp	r1, r3
    1e46:	d000      	beq.n	1e4a <rt_chk_robin+0x26>
    1e48:	bd08      	pop	{r3, pc}
    1e4a:	2300      	movs	r3, #0
    1e4c:	4807      	ldr	r0, [pc, #28]	; (1e6c <rt_chk_robin+0x48>)
    1e4e:	6013      	str	r3, [r2, #0]
    1e50:	f7ff f996 	bl	1180 <rt_get_first>
    1e54:	e8bd 4008 	ldmia.w	sp!, {r3, lr}
    1e58:	4601      	mov	r1, r0
    1e5a:	4804      	ldr	r0, [pc, #16]	; (1e6c <rt_chk_robin+0x48>)
    1e5c:	f7ff b966 	b.w	112c <rt_put_prio>
    1e60:	8893      	ldrh	r3, [r2, #4]
    1e62:	6809      	ldr	r1, [r1, #0]
    1e64:	e7ed      	b.n	1e42 <rt_chk_robin+0x1e>
    1e66:	bf00      	nop
    1e68:	100011e4 	.word	0x100011e4
    1e6c:	10000688 	.word	0x10000688
    1e70:	100006f8 	.word	0x100006f8

00001e74 <mbed_die>:
    1e74:	b500      	push	{lr}
    1e76:	b099      	sub	sp, #100	; 0x64
    1e78:	b672      	cpsid	i
    1e7a:	4917      	ldr	r1, [pc, #92]	; (1ed8 <mbed_die+0x64>)
    1e7c:	4668      	mov	r0, sp
    1e7e:	f000 f857 	bl	1f30 <gpio_init_out>
    1e82:	a806      	add	r0, sp, #24
    1e84:	4915      	ldr	r1, [pc, #84]	; (1edc <mbed_die+0x68>)
    1e86:	f000 f853 	bl	1f30 <gpio_init_out>
    1e8a:	a80c      	add	r0, sp, #48	; 0x30
    1e8c:	4914      	ldr	r1, [pc, #80]	; (1ee0 <mbed_die+0x6c>)
    1e8e:	f000 f84f 	bl	1f30 <gpio_init_out>
    1e92:	a812      	add	r0, sp, #72	; 0x48
    1e94:	4913      	ldr	r1, [pc, #76]	; (1ee4 <mbed_die+0x70>)
    1e96:	f000 f84b 	bl	1f30 <gpio_init_out>
    1e9a:	9a03      	ldr	r2, [sp, #12]
    1e9c:	9901      	ldr	r1, [sp, #4]
    1e9e:	9b0a      	ldr	r3, [sp, #40]	; 0x28
    1ea0:	6011      	str	r1, [r2, #0]
    1ea2:	9907      	ldr	r1, [sp, #28]
    1ea4:	9a10      	ldr	r2, [sp, #64]	; 0x40
    1ea6:	6019      	str	r1, [r3, #0]
    1ea8:	990d      	ldr	r1, [sp, #52]	; 0x34
    1eaa:	9b15      	ldr	r3, [sp, #84]	; 0x54
    1eac:	6011      	str	r1, [r2, #0]
    1eae:	9a13      	ldr	r2, [sp, #76]	; 0x4c
    1eb0:	2096      	movs	r0, #150	; 0x96
    1eb2:	601a      	str	r2, [r3, #0]
    1eb4:	f000 f922 	bl	20fc <wait_ms>
    1eb8:	9a04      	ldr	r2, [sp, #16]
    1eba:	9901      	ldr	r1, [sp, #4]
    1ebc:	9b09      	ldr	r3, [sp, #36]	; 0x24
    1ebe:	6011      	str	r1, [r2, #0]
    1ec0:	9907      	ldr	r1, [sp, #28]
    1ec2:	9a0f      	ldr	r2, [sp, #60]	; 0x3c
    1ec4:	6019      	str	r1, [r3, #0]
    1ec6:	990d      	ldr	r1, [sp, #52]	; 0x34
    1ec8:	9b16      	ldr	r3, [sp, #88]	; 0x58
    1eca:	6011      	str	r1, [r2, #0]
    1ecc:	9a13      	ldr	r2, [sp, #76]	; 0x4c
    1ece:	2096      	movs	r0, #150	; 0x96
    1ed0:	601a      	str	r2, [r3, #0]
    1ed2:	f000 f913 	bl	20fc <wait_ms>
    1ed6:	e7e0      	b.n	1e9a <mbed_die+0x26>
    1ed8:	2009c032 	.word	0x2009c032
    1edc:	2009c034 	.word	0x2009c034
    1ee0:	2009c035 	.word	0x2009c035
    1ee4:	2009c037 	.word	0x2009c037

00001ee8 <error>:
    1ee8:	b40f      	push	{r0, r1, r2, r3}
    1eea:	b500      	push	{lr}
    1eec:	4a06      	ldr	r2, [pc, #24]	; (1f08 <error+0x20>)
    1eee:	b083      	sub	sp, #12
    1ef0:	ab04      	add	r3, sp, #16
    1ef2:	f853 1b04 	ldr.w	r1, [r3], #4
    1ef6:	6810      	ldr	r0, [r2, #0]
    1ef8:	461a      	mov	r2, r3
    1efa:	68c0      	ldr	r0, [r0, #12]
    1efc:	9301      	str	r3, [sp, #4]
    1efe:	f003 fa73 	bl	53e8 <vfiprintf>
    1f02:	2001      	movs	r0, #1
    1f04:	f002 fc86 	bl	4814 <exit>
    1f08:	100001e0 	.word	0x100001e0

00001f0c <gpio_init_in>:
    1f0c:	b538      	push	{r3, r4, r5, lr}
    1f0e:	460d      	mov	r5, r1
    1f10:	4604      	mov	r4, r0
    1f12:	f000 fa0f 	bl	2334 <gpio_init>
    1f16:	3501      	adds	r5, #1
    1f18:	d009      	beq.n	1f2e <gpio_init_in+0x22>
    1f1a:	4620      	mov	r0, r4
    1f1c:	2100      	movs	r1, #0
    1f1e:	f000 fa2b 	bl	2378 <gpio_dir>
    1f22:	4620      	mov	r0, r4
    1f24:	e8bd 4038 	ldmia.w	sp!, {r3, r4, r5, lr}
    1f28:	2103      	movs	r1, #3
    1f2a:	f000 ba21 	b.w	2370 <gpio_mode>
    1f2e:	bd38      	pop	{r3, r4, r5, pc}

00001f30 <gpio_init_out>:
    1f30:	b538      	push	{r3, r4, r5, lr}
    1f32:	460d      	mov	r5, r1
    1f34:	4604      	mov	r4, r0
    1f36:	f000 f9fd 	bl	2334 <gpio_init>
    1f3a:	3501      	adds	r5, #1
    1f3c:	d00c      	beq.n	1f58 <gpio_init_out+0x28>
    1f3e:	6923      	ldr	r3, [r4, #16]
    1f40:	6862      	ldr	r2, [r4, #4]
    1f42:	4620      	mov	r0, r4
    1f44:	601a      	str	r2, [r3, #0]
    1f46:	2101      	movs	r1, #1
    1f48:	f000 fa16 	bl	2378 <gpio_dir>
    1f4c:	4620      	mov	r0, r4
    1f4e:	e8bd 4038 	ldmia.w	sp!, {r3, r4, r5, lr}
    1f52:	2102      	movs	r1, #2
    1f54:	f000 ba0c 	b.w	2370 <gpio_mode>
    1f58:	bd38      	pop	{r3, r4, r5, pc}
    1f5a:	bf00      	nop

00001f5c <gpio_init_out_ex>:
    1f5c:	b570      	push	{r4, r5, r6, lr}
    1f5e:	460d      	mov	r5, r1
    1f60:	4616      	mov	r6, r2
    1f62:	4604      	mov	r4, r0
    1f64:	f000 f9e6 	bl	2334 <gpio_init>
    1f68:	3501      	adds	r5, #1
    1f6a:	d011      	beq.n	1f90 <gpio_init_out_ex+0x34>
    1f6c:	b966      	cbnz	r6, 1f88 <gpio_init_out_ex+0x2c>
    1f6e:	6923      	ldr	r3, [r4, #16]
    1f70:	6862      	ldr	r2, [r4, #4]
    1f72:	601a      	str	r2, [r3, #0]
    1f74:	4620      	mov	r0, r4
    1f76:	2101      	movs	r1, #1
    1f78:	f000 f9fe 	bl	2378 <gpio_dir>
    1f7c:	4620      	mov	r0, r4
    1f7e:	e8bd 4070 	ldmia.w	sp!, {r4, r5, r6, lr}
    1f82:	2102      	movs	r1, #2
    1f84:	f000 b9f4 	b.w	2370 <gpio_mode>
    1f88:	68e3      	ldr	r3, [r4, #12]
    1f8a:	6862      	ldr	r2, [r4, #4]
    1f8c:	601a      	str	r2, [r3, #0]
    1f8e:	e7f1      	b.n	1f74 <gpio_init_out_ex+0x18>
    1f90:	bd70      	pop	{r4, r5, r6, pc}
    1f92:	bf00      	nop

00001f94 <mbed_interface_connected>:
    1f94:	f000 b866 	b.w	2064 <semihost_connected>

00001f98 <pinmap_pinout>:
    1f98:	1c43      	adds	r3, r0, #1
    1f9a:	b510      	push	{r4, lr}
    1f9c:	4604      	mov	r4, r0
    1f9e:	d018      	beq.n	1fd2 <pinmap_pinout+0x3a>
    1fa0:	680b      	ldr	r3, [r1, #0]
    1fa2:	1c58      	adds	r0, r3, #1
    1fa4:	d104      	bne.n	1fb0 <pinmap_pinout+0x18>
    1fa6:	e00f      	b.n	1fc8 <pinmap_pinout+0x30>
    1fa8:	f851 3f0c 	ldr.w	r3, [r1, #12]!
    1fac:	1c5a      	adds	r2, r3, #1
    1fae:	d00b      	beq.n	1fc8 <pinmap_pinout+0x30>
    1fb0:	429c      	cmp	r4, r3
    1fb2:	d1f9      	bne.n	1fa8 <pinmap_pinout+0x10>
    1fb4:	4620      	mov	r0, r4
    1fb6:	6889      	ldr	r1, [r1, #8]
    1fb8:	f000 fb7c 	bl	26b4 <pin_function>
    1fbc:	4620      	mov	r0, r4
    1fbe:	e8bd 4010 	ldmia.w	sp!, {r4, lr}
    1fc2:	2102      	movs	r1, #2
    1fc4:	f000 bb92 	b.w	26ec <pin_mode>
    1fc8:	4802      	ldr	r0, [pc, #8]	; (1fd4 <pinmap_pinout+0x3c>)
    1fca:	e8bd 4010 	ldmia.w	sp!, {r4, lr}
    1fce:	f7ff bf8b 	b.w	1ee8 <error>
    1fd2:	bd10      	pop	{r4, pc}
    1fd4:	00006ca0 	.word	0x00006ca0

00001fd8 <pinmap_merge>:
    1fd8:	4288      	cmp	r0, r1
    1fda:	d00a      	beq.n	1ff2 <pinmap_merge+0x1a>
    1fdc:	1c42      	adds	r2, r0, #1
    1fde:	d009      	beq.n	1ff4 <pinmap_merge+0x1c>
    1fe0:	3101      	adds	r1, #1
    1fe2:	d006      	beq.n	1ff2 <pinmap_merge+0x1a>
    1fe4:	b508      	push	{r3, lr}
    1fe6:	4804      	ldr	r0, [pc, #16]	; (1ff8 <pinmap_merge+0x20>)
    1fe8:	f7ff ff7e 	bl	1ee8 <error>
    1fec:	f04f 30ff 	mov.w	r0, #4294967295
    1ff0:	bd08      	pop	{r3, pc}
    1ff2:	4770      	bx	lr
    1ff4:	4608      	mov	r0, r1
    1ff6:	4770      	bx	lr
    1ff8:	00006cb4 	.word	0x00006cb4

00001ffc <pinmap_find_peripheral>:
    1ffc:	680b      	ldr	r3, [r1, #0]
    1ffe:	1c5a      	adds	r2, r3, #1
    2000:	d104      	bne.n	200c <pinmap_find_peripheral+0x10>
    2002:	e007      	b.n	2014 <pinmap_find_peripheral+0x18>
    2004:	f851 3f0c 	ldr.w	r3, [r1, #12]!
    2008:	1c5a      	adds	r2, r3, #1
    200a:	d003      	beq.n	2014 <pinmap_find_peripheral+0x18>
    200c:	4283      	cmp	r3, r0
    200e:	d1f9      	bne.n	2004 <pinmap_find_peripheral+0x8>
    2010:	6848      	ldr	r0, [r1, #4]
    2012:	4770      	bx	lr
    2014:	4618      	mov	r0, r3
    2016:	4770      	bx	lr

00002018 <pinmap_peripheral>:
    2018:	1c42      	adds	r2, r0, #1
    201a:	d00e      	beq.n	203a <pinmap_peripheral+0x22>
    201c:	b508      	push	{r3, lr}
    201e:	680b      	ldr	r3, [r1, #0]
    2020:	1c5a      	adds	r2, r3, #1
    2022:	d104      	bne.n	202e <pinmap_peripheral+0x16>
    2024:	e00a      	b.n	203c <pinmap_peripheral+0x24>
    2026:	f851 3f0c 	ldr.w	r3, [r1, #12]!
    202a:	1c5a      	adds	r2, r3, #1
    202c:	d006      	beq.n	203c <pinmap_peripheral+0x24>
    202e:	4298      	cmp	r0, r3
    2030:	d1f9      	bne.n	2026 <pinmap_peripheral+0xe>
    2032:	6848      	ldr	r0, [r1, #4]
    2034:	1c41      	adds	r1, r0, #1
    2036:	d001      	beq.n	203c <pinmap_peripheral+0x24>
    2038:	bd08      	pop	{r3, pc}
    203a:	4770      	bx	lr
    203c:	4802      	ldr	r0, [pc, #8]	; (2048 <pinmap_peripheral+0x30>)
    203e:	f7ff ff53 	bl	1ee8 <error>
    2042:	f04f 30ff 	mov.w	r0, #4294967295
    2046:	e7f7      	b.n	2038 <pinmap_peripheral+0x20>
    2048:	00006cc8 	.word	0x00006cc8

0000204c <semihost_exit>:
    204c:	b530      	push	{r4, r5, lr}
    204e:	b085      	sub	sp, #20
    2050:	2418      	movs	r4, #24
    2052:	466d      	mov	r5, sp
    2054:	4620      	mov	r0, r4
    2056:	4629      	mov	r1, r5
    2058:	beab      	bkpt	0x00ab
    205a:	4604      	mov	r4, r0
    205c:	4620      	mov	r0, r4
    205e:	b005      	add	sp, #20
    2060:	bd30      	pop	{r4, r5, pc}
    2062:	bf00      	nop

00002064 <semihost_connected>:
    2064:	4b02      	ldr	r3, [pc, #8]	; (2070 <semihost_connected+0xc>)
    2066:	6818      	ldr	r0, [r3, #0]
    2068:	f000 0001 	and.w	r0, r0, #1
    206c:	4770      	bx	lr
    206e:	bf00      	nop
    2070:	e000edf0 	.word	0xe000edf0

00002074 <ticker_irq_handler>:
    2074:	6803      	ldr	r3, [r0, #0]
    2076:	b570      	push	{r4, r5, r6, lr}
    2078:	68db      	ldr	r3, [r3, #12]
    207a:	4605      	mov	r5, r0
    207c:	4798      	blx	r3
    207e:	686b      	ldr	r3, [r5, #4]
    2080:	685b      	ldr	r3, [r3, #4]
    2082:	b183      	cbz	r3, 20a6 <ticker_irq_handler+0x32>
    2084:	682a      	ldr	r2, [r5, #0]
    2086:	681c      	ldr	r4, [r3, #0]
    2088:	6853      	ldr	r3, [r2, #4]
    208a:	4798      	blx	r3
    208c:	1a20      	subs	r0, r4, r0
    208e:	2800      	cmp	r0, #0
    2090:	686a      	ldr	r2, [r5, #4]
    2092:	dc0d      	bgt.n	20b0 <ticker_irq_handler+0x3c>
    2094:	6850      	ldr	r0, [r2, #4]
    2096:	6811      	ldr	r1, [r2, #0]
    2098:	6883      	ldr	r3, [r0, #8]
    209a:	6053      	str	r3, [r2, #4]
    209c:	2900      	cmp	r1, #0
    209e:	d0f0      	beq.n	2082 <ticker_irq_handler+0xe>
    20a0:	6840      	ldr	r0, [r0, #4]
    20a2:	4788      	blx	r1
    20a4:	e7eb      	b.n	207e <ticker_irq_handler+0xa>
    20a6:	682b      	ldr	r3, [r5, #0]
    20a8:	e8bd 4070 	ldmia.w	sp!, {r4, r5, r6, lr}
    20ac:	689b      	ldr	r3, [r3, #8]
    20ae:	4718      	bx	r3
    20b0:	682b      	ldr	r3, [r5, #0]
    20b2:	6852      	ldr	r2, [r2, #4]
    20b4:	691b      	ldr	r3, [r3, #16]
    20b6:	6810      	ldr	r0, [r2, #0]
    20b8:	e8bd 4070 	ldmia.w	sp!, {r4, r5, r6, lr}
    20bc:	4718      	bx	r3
    20be:	bf00      	nop

000020c0 <us_ticker_irq_handler>:
    20c0:	4801      	ldr	r0, [pc, #4]	; (20c8 <us_ticker_irq_handler+0x8>)
    20c2:	f7ff bfd7 	b.w	2074 <ticker_irq_handler>
    20c6:	bf00      	nop
    20c8:	00006d1c 	.word	0x00006d1c

000020cc <wait_us>:
    20cc:	b538      	push	{r3, r4, r5, lr}
    20ce:	4605      	mov	r5, r0
    20d0:	f001 f826 	bl	3120 <us_ticker_read>
    20d4:	4604      	mov	r4, r0
    20d6:	f001 f823 	bl	3120 <us_ticker_read>
    20da:	1b00      	subs	r0, r0, r4
    20dc:	42a8      	cmp	r0, r5
    20de:	d3fa      	bcc.n	20d6 <wait_us+0xa>
    20e0:	bd38      	pop	{r3, r4, r5, pc}
    20e2:	bf00      	nop

000020e4 <wait>:
    20e4:	b508      	push	{r3, lr}
    20e6:	4904      	ldr	r1, [pc, #16]	; (20f8 <wait+0x14>)
    20e8:	f002 f96e 	bl	43c8 <__aeabi_fmul>
    20ec:	f002 fb32 	bl	4754 <__aeabi_f2iz>
    20f0:	e8bd 4008 	ldmia.w	sp!, {r3, lr}
    20f4:	f7ff bfea 	b.w	20cc <wait_us>
    20f8:	49742400 	.word	0x49742400

000020fc <wait_ms>:
    20fc:	f44f 737a 	mov.w	r3, #1000	; 0x3e8
    2100:	fb03 f000 	mul.w	r0, r3, r0
    2104:	f7ff bfe2 	b.w	20cc <wait_us>

00002108 <NVIC_SetVector>:
    2108:	4b0c      	ldr	r3, [pc, #48]	; (213c <NVIC_SetVector+0x34>)
    210a:	b430      	push	{r4, r5}
    210c:	689d      	ldr	r5, [r3, #8]
    210e:	689a      	ldr	r2, [r3, #8]
    2110:	462b      	mov	r3, r5
    2112:	f1b2 5f80 	cmp.w	r2, #268435456	; 0x10000000
    2116:	d20c      	bcs.n	2132 <NVIC_SetVector+0x2a>
    2118:	4a09      	ldr	r2, [pc, #36]	; (2140 <NVIC_SetVector+0x38>)
    211a:	35c4      	adds	r5, #196	; 0xc4
    211c:	f853 4b04 	ldr.w	r4, [r3], #4
    2120:	42ab      	cmp	r3, r5
    2122:	f842 4f04 	str.w	r4, [r2, #4]!
    2126:	d1f9      	bne.n	211c <NVIC_SetVector+0x14>
    2128:	f04f 5280 	mov.w	r2, #268435456	; 0x10000000
    212c:	4613      	mov	r3, r2
    212e:	4c03      	ldr	r4, [pc, #12]	; (213c <NVIC_SetVector+0x34>)
    2130:	60a2      	str	r2, [r4, #8]
    2132:	3010      	adds	r0, #16
    2134:	f843 1020 	str.w	r1, [r3, r0, lsl #2]
    2138:	bc30      	pop	{r4, r5}
    213a:	4770      	bx	lr
    213c:	e000ed00 	.word	0xe000ed00
    2140:	0ffffffc 	.word	0x0ffffffc

00002144 <SystemInit>:
    2144:	4a2b      	ldr	r2, [pc, #172]	; (21f4 <SystemInit+0xb0>)
    2146:	2320      	movs	r3, #32
    2148:	b4f0      	push	{r4, r5, r6, r7}
    214a:	f8c2 31a0 	str.w	r3, [r2, #416]	; 0x1a0
    214e:	f8d2 31a0 	ldr.w	r3, [r2, #416]	; 0x1a0
    2152:	0698      	lsls	r0, r3, #26
    2154:	d445      	bmi.n	21e2 <SystemInit+0x9e>
    2156:	4b27      	ldr	r3, [pc, #156]	; (21f4 <SystemInit+0xb0>)
    2158:	2500      	movs	r5, #0
    215a:	4619      	mov	r1, r3
    215c:	2401      	movs	r4, #1
    215e:	20aa      	movs	r0, #170	; 0xaa
    2160:	2255      	movs	r2, #85	; 0x55
    2162:	2702      	movs	r7, #2
    2164:	260b      	movs	r6, #11
    2166:	f8c3 7104 	str.w	r7, [r3, #260]	; 0x104
    216a:	f8c3 51a8 	str.w	r5, [r3, #424]	; 0x1a8
    216e:	f8c3 51ac 	str.w	r5, [r3, #428]	; 0x1ac
    2172:	f8c3 410c 	str.w	r4, [r3, #268]	; 0x10c
    2176:	f8c3 6084 	str.w	r6, [r3, #132]	; 0x84
    217a:	f8c3 008c 	str.w	r0, [r3, #140]	; 0x8c
    217e:	f8c3 208c 	str.w	r2, [r3, #140]	; 0x8c
    2182:	f8c3 4080 	str.w	r4, [r3, #128]	; 0x80
    2186:	f8c3 008c 	str.w	r0, [r3, #140]	; 0x8c
    218a:	f8c3 208c 	str.w	r2, [r3, #140]	; 0x8c
    218e:	f8d1 3088 	ldr.w	r3, [r1, #136]	; 0x88
    2192:	4a18      	ldr	r2, [pc, #96]	; (21f4 <SystemInit+0xb0>)
    2194:	015b      	lsls	r3, r3, #5
    2196:	d5fa      	bpl.n	218e <SystemInit+0x4a>
    2198:	4611      	mov	r1, r2
    219a:	2403      	movs	r4, #3
    219c:	20aa      	movs	r0, #170	; 0xaa
    219e:	2355      	movs	r3, #85	; 0x55
    21a0:	f8c2 4080 	str.w	r4, [r2, #128]	; 0x80
    21a4:	f8c2 008c 	str.w	r0, [r2, #140]	; 0x8c
    21a8:	f8c2 308c 	str.w	r3, [r2, #140]	; 0x8c
    21ac:	f8d1 3088 	ldr.w	r3, [r1, #136]	; 0x88
    21b0:	4a10      	ldr	r2, [pc, #64]	; (21f4 <SystemInit+0xb0>)
    21b2:	f013 7f40 	tst.w	r3, #50331648	; 0x3000000
    21b6:	d0f9      	beq.n	21ac <SystemInit+0x68>
    21b8:	490f      	ldr	r1, [pc, #60]	; (21f8 <SystemInit+0xb4>)
    21ba:	2300      	movs	r3, #0
    21bc:	2005      	movs	r0, #5
    21be:	f8c2 0108 	str.w	r0, [r2, #264]	; 0x108
    21c2:	f8c2 10c4 	str.w	r1, [r2, #196]	; 0xc4
    21c6:	f8c2 31c8 	str.w	r3, [r2, #456]	; 0x1c8
    21ca:	6813      	ldr	r3, [r2, #0]
    21cc:	bcf0      	pop	{r4, r5, r6, r7}
    21ce:	f423 4370 	bic.w	r3, r3, #61440	; 0xf000
    21d2:	f023 033a 	bic.w	r3, r3, #58	; 0x3a
    21d6:	f443 5340 	orr.w	r3, r3, #12288	; 0x3000
    21da:	f043 033a 	orr.w	r3, r3, #58	; 0x3a
    21de:	6013      	str	r3, [r2, #0]
    21e0:	4770      	bx	lr
    21e2:	f8d2 31a0 	ldr.w	r3, [r2, #416]	; 0x1a0
    21e6:	0659      	lsls	r1, r3, #25
    21e8:	d4b5      	bmi.n	2156 <SystemInit+0x12>
    21ea:	f8d2 31a0 	ldr.w	r3, [r2, #416]	; 0x1a0
    21ee:	0659      	lsls	r1, r3, #25
    21f0:	d5f7      	bpl.n	21e2 <SystemInit+0x9e>
    21f2:	e7b0      	b.n	2156 <SystemInit+0x12>
    21f4:	400fc000 	.word	0x400fc000
    21f8:	042887de 	.word	0x042887de

000021fc <analogin_init>:
    21fc:	b570      	push	{r4, r5, r6, lr}
    21fe:	460d      	mov	r5, r1
    2200:	4c18      	ldr	r4, [pc, #96]	; (2264 <analogin_init+0x68>)
    2202:	4606      	mov	r6, r0
    2204:	4621      	mov	r1, r4
    2206:	4628      	mov	r0, r5
    2208:	f7ff ff06 	bl	2018 <pinmap_peripheral>
    220c:	4a16      	ldr	r2, [pc, #88]	; (2268 <analogin_init+0x6c>)
    220e:	7030      	strb	r0, [r6, #0]
    2210:	f8d2 30c4 	ldr.w	r3, [r2, #196]	; 0xc4
    2214:	4e15      	ldr	r6, [pc, #84]	; (226c <analogin_init+0x70>)
    2216:	f443 5380 	orr.w	r3, r3, #4096	; 0x1000
    221a:	f8c2 30c4 	str.w	r3, [r2, #196]	; 0xc4
    221e:	f8d2 31a8 	ldr.w	r3, [r2, #424]	; 0x1a8
    2222:	4913      	ldr	r1, [pc, #76]	; (2270 <analogin_init+0x74>)
    2224:	f023 7340 	bic.w	r3, r3, #50331648	; 0x3000000
    2228:	f8c2 31a8 	str.w	r3, [r2, #424]	; 0x1a8
    222c:	f8d2 01a8 	ldr.w	r0, [r2, #424]	; 0x1a8
    2230:	4b10      	ldr	r3, [pc, #64]	; (2274 <analogin_init+0x78>)
    2232:	f040 7080 	orr.w	r0, r0, #16777216	; 0x1000000
    2236:	f8c2 01a8 	str.w	r0, [r2, #424]	; 0x1a8
    223a:	6832      	ldr	r2, [r6, #0]
    223c:	4e0e      	ldr	r6, [pc, #56]	; (2278 <analogin_init+0x7c>)
    223e:	4411      	add	r1, r2
    2240:	43ca      	mvns	r2, r1
    2242:	fb83 0301 	smull	r0, r3, r3, r1
    2246:	0fd2      	lsrs	r2, r2, #31
    2248:	440b      	add	r3, r1
    224a:	ebc2 53e3 	rsb	r3, r2, r3, asr #23
    224e:	021b      	lsls	r3, r3, #8
    2250:	f443 1300 	orr.w	r3, r3, #2097152	; 0x200000
    2254:	4628      	mov	r0, r5
    2256:	4621      	mov	r1, r4
    2258:	6033      	str	r3, [r6, #0]
    225a:	e8bd 4070 	ldmia.w	sp!, {r4, r5, r6, lr}
    225e:	f7ff be9b 	b.w	1f98 <pinmap_pinout>
    2262:	bf00      	nop
    2264:	00006d24 	.word	0x00006d24
    2268:	400fc000 	.word	0x400fc000
    226c:	1000015c 	.word	0x1000015c
    2270:	00c65d3f 	.word	0x00c65d3f
    2274:	a530e8a5 	.word	0xa530e8a5
    2278:	40034000 	.word	0x40034000

0000227c <analogin_read>:
    227c:	4b2b      	ldr	r3, [pc, #172]	; (232c <analogin_read+0xb0>)
    227e:	b570      	push	{r4, r5, r6, lr}
    2280:	461a      	mov	r2, r3
    2282:	6819      	ldr	r1, [r3, #0]
    2284:	7800      	ldrb	r0, [r0, #0]
    2286:	f021 01ff 	bic.w	r1, r1, #255	; 0xff
    228a:	6019      	str	r1, [r3, #0]
    228c:	6819      	ldr	r1, [r3, #0]
    228e:	2501      	movs	r5, #1
    2290:	4085      	lsls	r5, r0
    2292:	4329      	orrs	r1, r5
    2294:	6019      	str	r1, [r3, #0]
    2296:	6819      	ldr	r1, [r3, #0]
    2298:	f041 7180 	orr.w	r1, r1, #16777216	; 0x1000000
    229c:	6019      	str	r1, [r3, #0]
    229e:	6850      	ldr	r0, [r2, #4]
    22a0:	4b22      	ldr	r3, [pc, #136]	; (232c <analogin_read+0xb0>)
    22a2:	2800      	cmp	r0, #0
    22a4:	dafb      	bge.n	229e <analogin_read+0x22>
    22a6:	461a      	mov	r2, r3
    22a8:	6819      	ldr	r1, [r3, #0]
    22aa:	f3c0 100b 	ubfx	r0, r0, #4, #12
    22ae:	f021 7180 	bic.w	r1, r1, #16777216	; 0x1000000
    22b2:	6019      	str	r1, [r3, #0]
    22b4:	6819      	ldr	r1, [r3, #0]
    22b6:	f021 01ff 	bic.w	r1, r1, #255	; 0xff
    22ba:	6019      	str	r1, [r3, #0]
    22bc:	6819      	ldr	r1, [r3, #0]
    22be:	4329      	orrs	r1, r5
    22c0:	6019      	str	r1, [r3, #0]
    22c2:	6819      	ldr	r1, [r3, #0]
    22c4:	f041 7180 	orr.w	r1, r1, #16777216	; 0x1000000
    22c8:	6019      	str	r1, [r3, #0]
    22ca:	6853      	ldr	r3, [r2, #4]
    22cc:	4917      	ldr	r1, [pc, #92]	; (232c <analogin_read+0xb0>)
    22ce:	2b00      	cmp	r3, #0
    22d0:	dafb      	bge.n	22ca <analogin_read+0x4e>
    22d2:	460c      	mov	r4, r1
    22d4:	680e      	ldr	r6, [r1, #0]
    22d6:	f3c3 120b 	ubfx	r2, r3, #4, #12
    22da:	f026 7380 	bic.w	r3, r6, #16777216	; 0x1000000
    22de:	600b      	str	r3, [r1, #0]
    22e0:	680b      	ldr	r3, [r1, #0]
    22e2:	f023 03ff 	bic.w	r3, r3, #255	; 0xff
    22e6:	600b      	str	r3, [r1, #0]
    22e8:	680b      	ldr	r3, [r1, #0]
    22ea:	431d      	orrs	r5, r3
    22ec:	600d      	str	r5, [r1, #0]
    22ee:	680b      	ldr	r3, [r1, #0]
    22f0:	f043 7380 	orr.w	r3, r3, #16777216	; 0x1000000
    22f4:	600b      	str	r3, [r1, #0]
    22f6:	6863      	ldr	r3, [r4, #4]
    22f8:	490c      	ldr	r1, [pc, #48]	; (232c <analogin_read+0xb0>)
    22fa:	2b00      	cmp	r3, #0
    22fc:	dafb      	bge.n	22f6 <analogin_read+0x7a>
    22fe:	680c      	ldr	r4, [r1, #0]
    2300:	4290      	cmp	r0, r2
    2302:	f024 7480 	bic.w	r4, r4, #16777216	; 0x1000000
    2306:	f3c3 130b 	ubfx	r3, r3, #4, #12
    230a:	600c      	str	r4, [r1, #0]
    230c:	d902      	bls.n	2314 <analogin_read+0x98>
    230e:	4601      	mov	r1, r0
    2310:	4610      	mov	r0, r2
    2312:	460a      	mov	r2, r1
    2314:	4293      	cmp	r3, r2
    2316:	bf28      	it	cs
    2318:	4613      	movcs	r3, r2
    231a:	4298      	cmp	r0, r3
    231c:	bf38      	it	cc
    231e:	4618      	movcc	r0, r3
    2320:	f001 fffa 	bl	4318 <__aeabi_ui2f>
    2324:	4902      	ldr	r1, [pc, #8]	; (2330 <analogin_read+0xb4>)
    2326:	f002 f84f 	bl	43c8 <__aeabi_fmul>
    232a:	bd70      	pop	{r4, r5, r6, pc}
    232c:	40034000 	.word	0x40034000
    2330:	39800801 	.word	0x39800801

00002334 <gpio_init>:
    2334:	1c4a      	adds	r2, r1, #1
    2336:	6001      	str	r1, [r0, #0]
    2338:	d018      	beq.n	236c <gpio_init+0x38>
    233a:	b538      	push	{r3, r4, r5, lr}
    233c:	460c      	mov	r4, r1
    233e:	4605      	mov	r5, r0
    2340:	4608      	mov	r0, r1
    2342:	2100      	movs	r1, #0
    2344:	f000 f9b6 	bl	26b4 <pin_function>
    2348:	f024 011f 	bic.w	r1, r4, #31
    234c:	f004 021f 	and.w	r2, r4, #31
    2350:	2301      	movs	r3, #1
    2352:	4093      	lsls	r3, r2
    2354:	f101 0418 	add.w	r4, r1, #24
    2358:	f101 001c 	add.w	r0, r1, #28
    235c:	f101 0214 	add.w	r2, r1, #20
    2360:	60a9      	str	r1, [r5, #8]
    2362:	606b      	str	r3, [r5, #4]
    2364:	60ec      	str	r4, [r5, #12]
    2366:	6128      	str	r0, [r5, #16]
    2368:	616a      	str	r2, [r5, #20]
    236a:	bd38      	pop	{r3, r4, r5, pc}
    236c:	4770      	bx	lr
    236e:	bf00      	nop

00002370 <gpio_mode>:
    2370:	6800      	ldr	r0, [r0, #0]
    2372:	f000 b9bb 	b.w	26ec <pin_mode>
    2376:	bf00      	nop

00002378 <gpio_dir>:
    2378:	b141      	cbz	r1, 238c <gpio_dir+0x14>
    237a:	2901      	cmp	r1, #1
    237c:	d105      	bne.n	238a <gpio_dir+0x12>
    237e:	6882      	ldr	r2, [r0, #8]
    2380:	6843      	ldr	r3, [r0, #4]
    2382:	6811      	ldr	r1, [r2, #0]
    2384:	430b      	orrs	r3, r1
    2386:	6013      	str	r3, [r2, #0]
    2388:	4770      	bx	lr
    238a:	4770      	bx	lr
    238c:	6882      	ldr	r2, [r0, #8]
    238e:	6841      	ldr	r1, [r0, #4]
    2390:	6813      	ldr	r3, [r2, #0]
    2392:	ea23 0301 	bic.w	r3, r3, r1
    2396:	6013      	str	r3, [r2, #0]
    2398:	4770      	bx	lr
    239a:	bf00      	nop

0000239c <i2c_init>:
    239c:	b5f8      	push	{r3, r4, r5, r6, r7, lr}
    239e:	4606      	mov	r6, r0
    23a0:	460d      	mov	r5, r1
    23a2:	4608      	mov	r0, r1
    23a4:	4924      	ldr	r1, [pc, #144]	; (2438 <i2c_init+0x9c>)
    23a6:	4614      	mov	r4, r2
    23a8:	f7ff fe36 	bl	2018 <pinmap_peripheral>
    23ac:	4923      	ldr	r1, [pc, #140]	; (243c <i2c_init+0xa0>)
    23ae:	4607      	mov	r7, r0
    23b0:	4620      	mov	r0, r4
    23b2:	f7ff fe31 	bl	2018 <pinmap_peripheral>
    23b6:	4601      	mov	r1, r0
    23b8:	4638      	mov	r0, r7
    23ba:	f7ff fe0d 	bl	1fd8 <pinmap_merge>
    23be:	4b20      	ldr	r3, [pc, #128]	; (2440 <i2c_init+0xa4>)
    23c0:	4602      	mov	r2, r0
    23c2:	4298      	cmp	r0, r3
    23c4:	6030      	str	r0, [r6, #0]
    23c6:	d02e      	beq.n	2426 <i2c_init+0x8a>
    23c8:	f503 2388 	add.w	r3, r3, #278528	; 0x44000
    23cc:	4298      	cmp	r0, r3
    23ce:	d022      	beq.n	2416 <i2c_init+0x7a>
    23d0:	f5a3 2304 	sub.w	r3, r3, #540672	; 0x84000
    23d4:	4298      	cmp	r0, r3
    23d6:	d016      	beq.n	2406 <i2c_init+0x6a>
    23d8:	4b1a      	ldr	r3, [pc, #104]	; (2444 <i2c_init+0xa8>)
    23da:	491b      	ldr	r1, [pc, #108]	; (2448 <i2c_init+0xac>)
    23dc:	681b      	ldr	r3, [r3, #0]
    23de:	273c      	movs	r7, #60	; 0x3c
    23e0:	0a1b      	lsrs	r3, r3, #8
    23e2:	fba1 1303 	umull	r1, r3, r1, r3
    23e6:	2640      	movs	r6, #64	; 0x40
    23e8:	099b      	lsrs	r3, r3, #6
    23ea:	6153      	str	r3, [r2, #20]
    23ec:	4628      	mov	r0, r5
    23ee:	6113      	str	r3, [r2, #16]
    23f0:	4911      	ldr	r1, [pc, #68]	; (2438 <i2c_init+0x9c>)
    23f2:	6197      	str	r7, [r2, #24]
    23f4:	6016      	str	r6, [r2, #0]
    23f6:	f7ff fdcf 	bl	1f98 <pinmap_pinout>
    23fa:	4620      	mov	r0, r4
    23fc:	e8bd 40f8 	ldmia.w	sp!, {r3, r4, r5, r6, r7, lr}
    2400:	490e      	ldr	r1, [pc, #56]	; (243c <i2c_init+0xa0>)
    2402:	f7ff bdc9 	b.w	1f98 <pinmap_pinout>
    2406:	4911      	ldr	r1, [pc, #68]	; (244c <i2c_init+0xb0>)
    2408:	f8d1 30c4 	ldr.w	r3, [r1, #196]	; 0xc4
    240c:	f043 0380 	orr.w	r3, r3, #128	; 0x80
    2410:	f8c1 30c4 	str.w	r3, [r1, #196]	; 0xc4
    2414:	e7e0      	b.n	23d8 <i2c_init+0x3c>
    2416:	490d      	ldr	r1, [pc, #52]	; (244c <i2c_init+0xb0>)
    2418:	f8d1 30c4 	ldr.w	r3, [r1, #196]	; 0xc4
    241c:	f043 6380 	orr.w	r3, r3, #67108864	; 0x4000000
    2420:	f8c1 30c4 	str.w	r3, [r1, #196]	; 0xc4
    2424:	e7d8      	b.n	23d8 <i2c_init+0x3c>
    2426:	4909      	ldr	r1, [pc, #36]	; (244c <i2c_init+0xb0>)
    2428:	f8d1 30c4 	ldr.w	r3, [r1, #196]	; 0xc4
    242c:	f443 2300 	orr.w	r3, r3, #524288	; 0x80000
    2430:	f8c1 30c4 	str.w	r3, [r1, #196]	; 0xc4
    2434:	e7d0      	b.n	23d8 <i2c_init+0x3c>
    2436:	bf00      	nop
    2438:	00006d90 	.word	0x00006d90
    243c:	00006dcc 	.word	0x00006dcc
    2440:	4005c000 	.word	0x4005c000
    2444:	1000015c 	.word	0x1000015c
    2448:	053e2d63 	.word	0x053e2d63
    244c:	400fc000 	.word	0x400fc000

00002450 <i2c_frequency>:
    2450:	4b04      	ldr	r3, [pc, #16]	; (2464 <i2c_frequency+0x14>)
    2452:	0049      	lsls	r1, r1, #1
    2454:	681b      	ldr	r3, [r3, #0]
    2456:	6802      	ldr	r2, [r0, #0]
    2458:	089b      	lsrs	r3, r3, #2
    245a:	fbb3 f1f1 	udiv	r1, r3, r1
    245e:	6151      	str	r1, [r2, #20]
    2460:	6111      	str	r1, [r2, #16]
    2462:	4770      	bx	lr
    2464:	1000015c 	.word	0x1000015c

00002468 <i2c_read>:
    2468:	e92d 43f0 	stmdb	sp!, {r4, r5, r6, r7, r8, r9, lr}
    246c:	6804      	ldr	r4, [r0, #0]
    246e:	253c      	movs	r5, #60	; 0x3c
    2470:	4607      	mov	r7, r0
    2472:	2024      	movs	r0, #36	; 0x24
    2474:	61a5      	str	r5, [r4, #24]
    2476:	46a6      	mov	lr, r4
    2478:	6020      	str	r0, [r4, #0]
    247a:	4d53      	ldr	r5, [pc, #332]	; (25c8 <i2c_read+0x160>)
    247c:	e001      	b.n	2482 <i2c_read+0x1a>
    247e:	3d01      	subs	r5, #1
    2480:	d002      	beq.n	2488 <i2c_read+0x20>
    2482:	6826      	ldr	r6, [r4, #0]
    2484:	0736      	lsls	r6, r6, #28
    2486:	d5fa      	bpl.n	247e <i2c_read+0x16>
    2488:	6860      	ldr	r0, [r4, #4]
    248a:	2520      	movs	r5, #32
    248c:	2810      	cmp	r0, #16
    248e:	61a5      	str	r5, [r4, #24]
    2490:	d010      	beq.n	24b4 <i2c_read+0x4c>
    2492:	2808      	cmp	r0, #8
    2494:	d00e      	beq.n	24b4 <i2c_read+0x4c>
    2496:	2310      	movs	r3, #16
    2498:	2208      	movs	r2, #8
    249a:	6023      	str	r3, [r4, #0]
    249c:	4b4a      	ldr	r3, [pc, #296]	; (25c8 <i2c_read+0x160>)
    249e:	61a2      	str	r2, [r4, #24]
    24a0:	e001      	b.n	24a6 <i2c_read+0x3e>
    24a2:	3b01      	subs	r3, #1
    24a4:	d002      	beq.n	24ac <i2c_read+0x44>
    24a6:	6822      	ldr	r2, [r4, #0]
    24a8:	06d5      	lsls	r5, r2, #27
    24aa:	d4fa      	bmi.n	24a2 <i2c_read+0x3a>
    24ac:	f06f 0001 	mvn.w	r0, #1
    24b0:	e8bd 83f0 	ldmia.w	sp!, {r4, r5, r6, r7, r8, r9, pc}
    24b4:	f041 0101 	orr.w	r1, r1, #1
    24b8:	2008      	movs	r0, #8
    24ba:	60a1      	str	r1, [r4, #8]
    24bc:	4942      	ldr	r1, [pc, #264]	; (25c8 <i2c_read+0x160>)
    24be:	61a0      	str	r0, [r4, #24]
    24c0:	e001      	b.n	24c6 <i2c_read+0x5e>
    24c2:	3901      	subs	r1, #1
    24c4:	d002      	beq.n	24cc <i2c_read+0x64>
    24c6:	6825      	ldr	r5, [r4, #0]
    24c8:	0728      	lsls	r0, r5, #28
    24ca:	d5fa      	bpl.n	24c2 <i2c_read+0x5a>
    24cc:	6861      	ldr	r1, [r4, #4]
    24ce:	2940      	cmp	r1, #64	; 0x40
    24d0:	d00e      	beq.n	24f0 <i2c_read+0x88>
    24d2:	2310      	movs	r3, #16
    24d4:	2208      	movs	r2, #8
    24d6:	6023      	str	r3, [r4, #0]
    24d8:	4b3b      	ldr	r3, [pc, #236]	; (25c8 <i2c_read+0x160>)
    24da:	61a2      	str	r2, [r4, #24]
    24dc:	e001      	b.n	24e2 <i2c_read+0x7a>
    24de:	3b01      	subs	r3, #1
    24e0:	d002      	beq.n	24e8 <i2c_read+0x80>
    24e2:	6822      	ldr	r2, [r4, #0]
    24e4:	06d6      	lsls	r6, r2, #27
    24e6:	d4fa      	bmi.n	24de <i2c_read+0x76>
    24e8:	f04f 30ff 	mov.w	r0, #4294967295
    24ec:	e8bd 83f0 	ldmia.w	sp!, {r4, r5, r6, r7, r8, r9, pc}
    24f0:	1e58      	subs	r0, r3, #1
    24f2:	2800      	cmp	r0, #0
    24f4:	bfd8      	it	le
    24f6:	f04f 0c00 	movle.w	r12, #0
    24fa:	dd1f      	ble.n	253c <i2c_read+0xd4>
    24fc:	4684      	mov	r12, r0
    24fe:	f102 3eff 	add.w	lr, r2, #4294967295
    2502:	2600      	movs	r6, #0
    2504:	f04f 0904 	mov.w	r9, #4
    2508:	f04f 0808 	mov.w	r8, #8
    250c:	f8c4 9000 	str.w	r9, [r4]
    2510:	492d      	ldr	r1, [pc, #180]	; (25c8 <i2c_read+0x160>)
    2512:	f8c4 8018 	str.w	r8, [r4, #24]
    2516:	e001      	b.n	251c <i2c_read+0xb4>
    2518:	3901      	subs	r1, #1
    251a:	d002      	beq.n	2522 <i2c_read+0xba>
    251c:	6825      	ldr	r5, [r4, #0]
    251e:	072d      	lsls	r5, r5, #28
    2520:	d5fa      	bpl.n	2518 <i2c_read+0xb0>
    2522:	68a5      	ldr	r5, [r4, #8]
    2524:	6861      	ldr	r1, [r4, #4]
    2526:	2950      	cmp	r1, #80	; 0x50
    2528:	d12c      	bne.n	2584 <i2c_read+0x11c>
    252a:	3601      	adds	r6, #1
    252c:	4286      	cmp	r6, r0
    252e:	f80e 5f01 	strb.w	r5, [lr, #1]!
    2532:	d001      	beq.n	2538 <i2c_read+0xd0>
    2534:	683c      	ldr	r4, [r7, #0]
    2536:	e7e9      	b.n	250c <i2c_read+0xa4>
    2538:	f8d7 e000 	ldr.w	lr, [r7]
    253c:	2104      	movs	r1, #4
    253e:	2408      	movs	r4, #8
    2540:	f8ce 1018 	str.w	r1, [lr, #24]
    2544:	4920      	ldr	r1, [pc, #128]	; (25c8 <i2c_read+0x160>)
    2546:	f8ce 4018 	str.w	r4, [lr, #24]
    254a:	e001      	b.n	2550 <i2c_read+0xe8>
    254c:	3901      	subs	r1, #1
    254e:	d003      	beq.n	2558 <i2c_read+0xf0>
    2550:	f8de 4000 	ldr.w	r4, [lr]
    2554:	0725      	lsls	r5, r4, #28
    2556:	d5f9      	bpl.n	254c <i2c_read+0xe4>
    2558:	f8de 4008 	ldr.w	r4, [lr, #8]
    255c:	f8de 1004 	ldr.w	r1, [lr, #4]
    2560:	2958      	cmp	r1, #88	; 0x58
    2562:	d01d      	beq.n	25a0 <i2c_read+0x138>
    2564:	2310      	movs	r3, #16
    2566:	2208      	movs	r2, #8
    2568:	f8ce 3000 	str.w	r3, [lr]
    256c:	4b16      	ldr	r3, [pc, #88]	; (25c8 <i2c_read+0x160>)
    256e:	f8ce 2018 	str.w	r2, [lr, #24]
    2572:	e001      	b.n	2578 <i2c_read+0x110>
    2574:	3b01      	subs	r3, #1
    2576:	d011      	beq.n	259c <i2c_read+0x134>
    2578:	f8de 2000 	ldr.w	r2, [lr]
    257c:	06d4      	lsls	r4, r2, #27
    257e:	d4f9      	bmi.n	2574 <i2c_read+0x10c>
    2580:	e8bd 83f0 	ldmia.w	sp!, {r4, r5, r6, r7, r8, r9, pc}
    2584:	2310      	movs	r3, #16
    2586:	2208      	movs	r2, #8
    2588:	6023      	str	r3, [r4, #0]
    258a:	4b0f      	ldr	r3, [pc, #60]	; (25c8 <i2c_read+0x160>)
    258c:	61a2      	str	r2, [r4, #24]
    258e:	e001      	b.n	2594 <i2c_read+0x12c>
    2590:	3b01      	subs	r3, #1
    2592:	d002      	beq.n	259a <i2c_read+0x132>
    2594:	6822      	ldr	r2, [r4, #0]
    2596:	06d7      	lsls	r7, r2, #27
    2598:	d4fa      	bmi.n	2590 <i2c_read+0x128>
    259a:	4630      	mov	r0, r6
    259c:	e8bd 83f0 	ldmia.w	sp!, {r4, r5, r6, r7, r8, r9, pc}
    25a0:	f802 400c 	strb.w	r4, [r2, r12]
    25a4:	9a07      	ldr	r2, [sp, #28]
    25a6:	b15a      	cbz	r2, 25c0 <i2c_read+0x158>
    25a8:	6838      	ldr	r0, [r7, #0]
    25aa:	2210      	movs	r2, #16
    25ac:	2108      	movs	r1, #8
    25ae:	6002      	str	r2, [r0, #0]
    25b0:	4a05      	ldr	r2, [pc, #20]	; (25c8 <i2c_read+0x160>)
    25b2:	6181      	str	r1, [r0, #24]
    25b4:	e001      	b.n	25ba <i2c_read+0x152>
    25b6:	3a01      	subs	r2, #1
    25b8:	d002      	beq.n	25c0 <i2c_read+0x158>
    25ba:	6801      	ldr	r1, [r0, #0]
    25bc:	06c9      	lsls	r1, r1, #27
    25be:	d4fa      	bmi.n	25b6 <i2c_read+0x14e>
    25c0:	4618      	mov	r0, r3
    25c2:	e8bd 83f0 	ldmia.w	sp!, {r4, r5, r6, r7, r8, r9, pc}
    25c6:	bf00      	nop
    25c8:	000186a1 	.word	0x000186a1

000025cc <i2c_write>:
    25cc:	b470      	push	{r4, r5, r6}
    25ce:	6804      	ldr	r4, [r0, #0]
    25d0:	253c      	movs	r5, #60	; 0x3c
    25d2:	2024      	movs	r0, #36	; 0x24
    25d4:	61a5      	str	r5, [r4, #24]
    25d6:	4d36      	ldr	r5, [pc, #216]	; (26b0 <i2c_write+0xe4>)
    25d8:	6020      	str	r0, [r4, #0]
    25da:	e001      	b.n	25e0 <i2c_write+0x14>
    25dc:	3d01      	subs	r5, #1
    25de:	d002      	beq.n	25e6 <i2c_write+0x1a>
    25e0:	6826      	ldr	r6, [r4, #0]
    25e2:	0730      	lsls	r0, r6, #28
    25e4:	d5fa      	bpl.n	25dc <i2c_write+0x10>
    25e6:	6860      	ldr	r0, [r4, #4]
    25e8:	2520      	movs	r5, #32
    25ea:	2810      	cmp	r0, #16
    25ec:	61a5      	str	r5, [r4, #24]
    25ee:	d010      	beq.n	2612 <i2c_write+0x46>
    25f0:	2808      	cmp	r0, #8
    25f2:	d00e      	beq.n	2612 <i2c_write+0x46>
    25f4:	2310      	movs	r3, #16
    25f6:	2208      	movs	r2, #8
    25f8:	6023      	str	r3, [r4, #0]
    25fa:	4b2d      	ldr	r3, [pc, #180]	; (26b0 <i2c_write+0xe4>)
    25fc:	61a2      	str	r2, [r4, #24]
    25fe:	e001      	b.n	2604 <i2c_write+0x38>
    2600:	3b01      	subs	r3, #1
    2602:	d002      	beq.n	260a <i2c_write+0x3e>
    2604:	6822      	ldr	r2, [r4, #0]
    2606:	06d6      	lsls	r6, r2, #27
    2608:	d4fa      	bmi.n	2600 <i2c_write+0x34>
    260a:	f06f 0001 	mvn.w	r0, #1
    260e:	bc70      	pop	{r4, r5, r6}
    2610:	4770      	bx	lr
    2612:	f001 01fe 	and.w	r1, r1, #254	; 0xfe
    2616:	2008      	movs	r0, #8
    2618:	60a1      	str	r1, [r4, #8]
    261a:	4925      	ldr	r1, [pc, #148]	; (26b0 <i2c_write+0xe4>)
    261c:	61a0      	str	r0, [r4, #24]
    261e:	e001      	b.n	2624 <i2c_write+0x58>
    2620:	3901      	subs	r1, #1
    2622:	d002      	beq.n	262a <i2c_write+0x5e>
    2624:	6825      	ldr	r5, [r4, #0]
    2626:	072d      	lsls	r5, r5, #28
    2628:	d5fa      	bpl.n	2620 <i2c_write+0x54>
    262a:	6861      	ldr	r1, [r4, #4]
    262c:	2918      	cmp	r1, #24
    262e:	d00e      	beq.n	264e <i2c_write+0x82>
    2630:	2310      	movs	r3, #16
    2632:	2208      	movs	r2, #8
    2634:	6023      	str	r3, [r4, #0]
    2636:	4b1e      	ldr	r3, [pc, #120]	; (26b0 <i2c_write+0xe4>)
    2638:	61a2      	str	r2, [r4, #24]
    263a:	e001      	b.n	2640 <i2c_write+0x74>
    263c:	3b01      	subs	r3, #1
    263e:	d002      	beq.n	2646 <i2c_write+0x7a>
    2640:	6822      	ldr	r2, [r4, #0]
    2642:	06d0      	lsls	r0, r2, #27
    2644:	d4fa      	bmi.n	263c <i2c_write+0x70>
    2646:	f04f 30ff 	mov.w	r0, #4294967295
    264a:	bc70      	pop	{r4, r5, r6}
    264c:	4770      	bx	lr
    264e:	2b00      	cmp	r3, #0
    2650:	dd13      	ble.n	267a <i2c_write+0xae>
    2652:	1e55      	subs	r5, r2, #1
    2654:	2000      	movs	r0, #0
    2656:	2608      	movs	r6, #8
    2658:	f815 1f01 	ldrb.w	r1, [r5, #1]!
    265c:	4a14      	ldr	r2, [pc, #80]	; (26b0 <i2c_write+0xe4>)
    265e:	60a1      	str	r1, [r4, #8]
    2660:	61a6      	str	r6, [r4, #24]
    2662:	e001      	b.n	2668 <i2c_write+0x9c>
    2664:	3a01      	subs	r2, #1
    2666:	d002      	beq.n	266e <i2c_write+0xa2>
    2668:	6821      	ldr	r1, [r4, #0]
    266a:	0709      	lsls	r1, r1, #28
    266c:	d5fa      	bpl.n	2664 <i2c_write+0x98>
    266e:	6862      	ldr	r2, [r4, #4]
    2670:	2a28      	cmp	r2, #40	; 0x28
    2672:	d111      	bne.n	2698 <i2c_write+0xcc>
    2674:	3001      	adds	r0, #1
    2676:	4298      	cmp	r0, r3
    2678:	d1ee      	bne.n	2658 <i2c_write+0x8c>
    267a:	9a03      	ldr	r2, [sp, #12]
    267c:	b152      	cbz	r2, 2694 <i2c_write+0xc8>
    267e:	2210      	movs	r2, #16
    2680:	2108      	movs	r1, #8
    2682:	6022      	str	r2, [r4, #0]
    2684:	4a0a      	ldr	r2, [pc, #40]	; (26b0 <i2c_write+0xe4>)
    2686:	61a1      	str	r1, [r4, #24]
    2688:	e001      	b.n	268e <i2c_write+0xc2>
    268a:	3a01      	subs	r2, #1
    268c:	d002      	beq.n	2694 <i2c_write+0xc8>
    268e:	6821      	ldr	r1, [r4, #0]
    2690:	06c9      	lsls	r1, r1, #27
    2692:	d4fa      	bmi.n	268a <i2c_write+0xbe>
    2694:	4618      	mov	r0, r3
    2696:	e7ba      	b.n	260e <i2c_write+0x42>
    2698:	2310      	movs	r3, #16
    269a:	2208      	movs	r2, #8
    269c:	6023      	str	r3, [r4, #0]
    269e:	4b04      	ldr	r3, [pc, #16]	; (26b0 <i2c_write+0xe4>)
    26a0:	61a2      	str	r2, [r4, #24]
    26a2:	e001      	b.n	26a8 <i2c_write+0xdc>
    26a4:	3b01      	subs	r3, #1
    26a6:	d0b2      	beq.n	260e <i2c_write+0x42>
    26a8:	6822      	ldr	r2, [r4, #0]
    26aa:	06d5      	lsls	r5, r2, #27
    26ac:	d4fa      	bmi.n	26a4 <i2c_write+0xd8>
    26ae:	e7ae      	b.n	260e <i2c_write+0x42>
    26b0:	000186a1 	.word	0x000186a1

000026b4 <pin_function>:
    26b4:	f100 4060 	add.w	r0, r0, #3758096384	; 0xe0000000
    26b8:	f5a0 201c 	sub.w	r0, r0, #638976	; 0x9c000
    26bc:	0903      	lsrs	r3, r0, #4
    26be:	009b      	lsls	r3, r3, #2
    26c0:	f103 4380 	add.w	r3, r3, #1073741824	; 0x40000000
    26c4:	f503 3330 	add.w	r3, r3, #180224	; 0x2c000
    26c8:	f000 000f 	and.w	r0, r0, #15
    26cc:	b410      	push	{r4}
    26ce:	0040      	lsls	r0, r0, #1
    26d0:	681c      	ldr	r4, [r3, #0]
    26d2:	2203      	movs	r2, #3
    26d4:	4082      	lsls	r2, r0
    26d6:	ea24 0202 	bic.w	r2, r4, r2
    26da:	601a      	str	r2, [r3, #0]
    26dc:	681a      	ldr	r2, [r3, #0]
    26de:	4081      	lsls	r1, r0
    26e0:	430a      	orrs	r2, r1
    26e2:	601a      	str	r2, [r3, #0]
    26e4:	f85d 4b04 	ldr.w	r4, [sp], #4
    26e8:	4770      	bx	lr
    26ea:	bf00      	nop

000026ec <pin_mode>:
    26ec:	f100 4060 	add.w	r0, r0, #3758096384	; 0xe0000000
    26f0:	f5a0 201c 	sub.w	r0, r0, #638976	; 0x9c000
    26f4:	0943      	lsrs	r3, r0, #5
    26f6:	009b      	lsls	r3, r3, #2
    26f8:	f103 4380 	add.w	r3, r3, #1073741824	; 0x40000000
    26fc:	f503 3330 	add.w	r3, r3, #180224	; 0x2c000
    2700:	b430      	push	{r4, r5}
    2702:	f000 021f 	and.w	r2, r0, #31
    2706:	6e9c      	ldr	r4, [r3, #104]	; 0x68
    2708:	f3c1 0580 	ubfx	r5, r1, #2, #1
    270c:	fa05 f202 	lsl.w	r2, r5, r2
    2710:	ea24 0402 	bic.w	r4, r4, r2
    2714:	669c      	str	r4, [r3, #104]	; 0x68
    2716:	6e9c      	ldr	r4, [r3, #104]	; 0x68
    2718:	4322      	orrs	r2, r4
    271a:	669a      	str	r2, [r3, #104]	; 0x68
    271c:	b995      	cbnz	r5, 2744 <pin_mode+0x58>
    271e:	0903      	lsrs	r3, r0, #4
    2720:	009b      	lsls	r3, r3, #2
    2722:	f103 4380 	add.w	r3, r3, #1073741824	; 0x40000000
    2726:	f503 3330 	add.w	r3, r3, #180224	; 0x2c000
    272a:	f000 000f 	and.w	r0, r0, #15
    272e:	6c1c      	ldr	r4, [r3, #64]	; 0x40
    2730:	0040      	lsls	r0, r0, #1
    2732:	2203      	movs	r2, #3
    2734:	4082      	lsls	r2, r0
    2736:	ea24 0202 	bic.w	r2, r4, r2
    273a:	641a      	str	r2, [r3, #64]	; 0x40
    273c:	6c1a      	ldr	r2, [r3, #64]	; 0x40
    273e:	4081      	lsls	r1, r0
    2740:	4311      	orrs	r1, r2
    2742:	6419      	str	r1, [r3, #64]	; 0x40
    2744:	bc30      	pop	{r4, r5}
    2746:	4770      	bx	lr

00002748 <pwmout_write>:
    2748:	b570      	push	{r4, r5, r6, lr}
    274a:	460c      	mov	r4, r1
    274c:	4605      	mov	r5, r0
    274e:	2100      	movs	r1, #0
    2750:	4620      	mov	r0, r4
    2752:	f001 ffd7 	bl	4704 <__aeabi_fcmplt>
    2756:	b9f0      	cbnz	r0, 2796 <pwmout_write+0x4e>
    2758:	4620      	mov	r0, r4
    275a:	f04f 517e 	mov.w	r1, #1065353216	; 0x3f800000
    275e:	f001 ffef 	bl	4740 <__aeabi_fcmpgt>
    2762:	b108      	cbz	r0, 2768 <pwmout_write+0x20>
    2764:	f04f 547e 	mov.w	r4, #1065353216	; 0x3f800000
    2768:	4e0c      	ldr	r6, [pc, #48]	; (279c <pwmout_write+0x54>)
    276a:	69b0      	ldr	r0, [r6, #24]
    276c:	f001 fdd4 	bl	4318 <__aeabi_ui2f>
    2770:	4621      	mov	r1, r4
    2772:	f001 fe29 	bl	43c8 <__aeabi_fmul>
    2776:	f002 f813 	bl	47a0 <__aeabi_f2uiz>
    277a:	69b3      	ldr	r3, [r6, #24]
    277c:	4907      	ldr	r1, [pc, #28]	; (279c <pwmout_write+0x54>)
    277e:	4283      	cmp	r3, r0
    2780:	682b      	ldr	r3, [r5, #0]
    2782:	bf08      	it	eq
    2784:	3001      	addeq	r0, #1
    2786:	6018      	str	r0, [r3, #0]
    2788:	7928      	ldrb	r0, [r5, #4]
    278a:	6d0a      	ldr	r2, [r1, #80]	; 0x50
    278c:	2301      	movs	r3, #1
    278e:	4083      	lsls	r3, r0
    2790:	4313      	orrs	r3, r2
    2792:	650b      	str	r3, [r1, #80]	; 0x50
    2794:	bd70      	pop	{r4, r5, r6, pc}
    2796:	2400      	movs	r4, #0
    2798:	e7e6      	b.n	2768 <pwmout_write+0x20>
    279a:	bf00      	nop
    279c:	40018000 	.word	0x40018000

000027a0 <pwmout_period_us>:
    27a0:	4b0e      	ldr	r3, [pc, #56]	; (27dc <pwmout_period_us+0x3c>)
    27a2:	4a0f      	ldr	r2, [pc, #60]	; (27e0 <pwmout_period_us+0x40>)
    27a4:	681b      	ldr	r3, [r3, #0]
    27a6:	b410      	push	{r4}
    27a8:	fb03 f101 	mul.w	r1, r3, r1
    27ac:	2402      	movs	r4, #2
    27ae:	6054      	str	r4, [r2, #4]
    27b0:	6191      	str	r1, [r2, #24]
    27b2:	6993      	ldr	r3, [r2, #24]
    27b4:	b13b      	cbz	r3, 27c6 <pwmout_period_us+0x26>
    27b6:	6800      	ldr	r0, [r0, #0]
    27b8:	6803      	ldr	r3, [r0, #0]
    27ba:	6992      	ldr	r2, [r2, #24]
    27bc:	fb03 f101 	mul.w	r1, r3, r1
    27c0:	fbb1 f1f2 	udiv	r1, r1, r2
    27c4:	6001      	str	r1, [r0, #0]
    27c6:	4b06      	ldr	r3, [pc, #24]	; (27e0 <pwmout_period_us+0x40>)
    27c8:	2109      	movs	r1, #9
    27ca:	6d1a      	ldr	r2, [r3, #80]	; 0x50
    27cc:	f85d 4b04 	ldr.w	r4, [sp], #4
    27d0:	f042 0201 	orr.w	r2, r2, #1
    27d4:	651a      	str	r2, [r3, #80]	; 0x50
    27d6:	6059      	str	r1, [r3, #4]
    27d8:	4770      	bx	lr
    27da:	bf00      	nop
    27dc:	100003ec 	.word	0x100003ec
    27e0:	40018000 	.word	0x40018000

000027e4 <pwmout_init>:
    27e4:	b5f8      	push	{r3, r4, r5, r6, r7, lr}
    27e6:	460e      	mov	r6, r1
    27e8:	4d1e      	ldr	r5, [pc, #120]	; (2864 <pwmout_init+0x80>)
    27ea:	4604      	mov	r4, r0
    27ec:	4629      	mov	r1, r5
    27ee:	4630      	mov	r0, r6
    27f0:	f7ff fc12 	bl	2018 <pinmap_peripheral>
    27f4:	491c      	ldr	r1, [pc, #112]	; (2868 <pwmout_init+0x84>)
    27f6:	4f1d      	ldr	r7, [pc, #116]	; (286c <pwmout_init+0x88>)
    27f8:	f8d1 30c4 	ldr.w	r3, [r1, #196]	; 0xc4
    27fc:	b2c2      	uxtb	r2, r0
    27fe:	f857 7022 	ldr.w	r7, [r7, r2, lsl #2]
    2802:	f043 0340 	orr.w	r3, r3, #64	; 0x40
    2806:	7120      	strb	r0, [r4, #4]
    2808:	6027      	str	r7, [r4, #0]
    280a:	f8c1 30c4 	str.w	r3, [r1, #196]	; 0xc4
    280e:	f8d1 01a8 	ldr.w	r0, [r1, #424]	; 0x1a8
    2812:	4b17      	ldr	r3, [pc, #92]	; (2870 <pwmout_init+0x8c>)
    2814:	f04f 0e00 	mov.w	lr, #0
    2818:	f420 5040 	bic.w	r0, r0, #12288	; 0x3000
    281c:	2702      	movs	r7, #2
    281e:	f8c1 01a8 	str.w	r0, [r1, #424]	; 0x1a8
    2822:	f8c3 e00c 	str.w	lr, [r3, #12]
    2826:	615f      	str	r7, [r3, #20]
    2828:	6cd9      	ldr	r1, [r3, #76]	; 0x4c
    282a:	2001      	movs	r0, #1
    282c:	3208      	adds	r2, #8
    282e:	fa00 f202 	lsl.w	r2, r0, r2
    2832:	430a      	orrs	r2, r1
    2834:	490f      	ldr	r1, [pc, #60]	; (2874 <pwmout_init+0x90>)
    2836:	64da      	str	r2, [r3, #76]	; 0x4c
    2838:	680b      	ldr	r3, [r1, #0]
    283a:	490f      	ldr	r1, [pc, #60]	; (2878 <pwmout_init+0x94>)
    283c:	4a0f      	ldr	r2, [pc, #60]	; (287c <pwmout_init+0x98>)
    283e:	fba1 1303 	umull	r1, r3, r1, r3
    2842:	4620      	mov	r0, r4
    2844:	0d1b      	lsrs	r3, r3, #20
    2846:	f644 6120 	movw	r1, #20000	; 0x4e20
    284a:	6013      	str	r3, [r2, #0]
    284c:	f7ff ffa8 	bl	27a0 <pwmout_period_us>
    2850:	4620      	mov	r0, r4
    2852:	2100      	movs	r1, #0
    2854:	f7ff ff78 	bl	2748 <pwmout_write>
    2858:	4630      	mov	r0, r6
    285a:	4629      	mov	r1, r5
    285c:	e8bd 40f8 	ldmia.w	sp!, {r3, r4, r5, r6, r7, lr}
    2860:	f7ff bb9a 	b.w	1f98 <pinmap_pinout>
    2864:	00006e08 	.word	0x00006e08
    2868:	400fc000 	.word	0x400fc000
    286c:	10000160 	.word	0x10000160
    2870:	40018000 	.word	0x40018000
    2874:	1000015c 	.word	0x1000015c
    2878:	431bde83 	.word	0x431bde83
    287c:	100003ec 	.word	0x100003ec

00002880 <pwmout_pulsewidth>:
    2880:	b510      	push	{r4, lr}
    2882:	4604      	mov	r4, r0
    2884:	4608      	mov	r0, r1
    2886:	490c      	ldr	r1, [pc, #48]	; (28b8 <pwmout_pulsewidth+0x38>)
    2888:	f001 fd9e 	bl	43c8 <__aeabi_fmul>
    288c:	f001 ff62 	bl	4754 <__aeabi_f2iz>
    2890:	4b0a      	ldr	r3, [pc, #40]	; (28bc <pwmout_pulsewidth+0x3c>)
    2892:	4a0b      	ldr	r2, [pc, #44]	; (28c0 <pwmout_pulsewidth+0x40>)
    2894:	681b      	ldr	r3, [r3, #0]
    2896:	6992      	ldr	r2, [r2, #24]
    2898:	fb03 f000 	mul.w	r0, r3, r0
    289c:	6823      	ldr	r3, [r4, #0]
    289e:	4290      	cmp	r0, r2
    28a0:	bf08      	it	eq
    28a2:	3001      	addeq	r0, #1
    28a4:	4906      	ldr	r1, [pc, #24]	; (28c0 <pwmout_pulsewidth+0x40>)
    28a6:	6018      	str	r0, [r3, #0]
    28a8:	7920      	ldrb	r0, [r4, #4]
    28aa:	6d0a      	ldr	r2, [r1, #80]	; 0x50
    28ac:	2301      	movs	r3, #1
    28ae:	4083      	lsls	r3, r0
    28b0:	4313      	orrs	r3, r2
    28b2:	650b      	str	r3, [r1, #80]	; 0x50
    28b4:	bd10      	pop	{r4, pc}
    28b6:	bf00      	nop
    28b8:	49742400 	.word	0x49742400
    28bc:	100003ec 	.word	0x100003ec
    28c0:	40018000 	.word	0x40018000

000028c4 <uart2_irq>:
    28c4:	4b17      	ldr	r3, [pc, #92]	; (2924 <uart2_irq+0x60>)
    28c6:	6899      	ldr	r1, [r3, #8]
    28c8:	f3c1 0142 	ubfx	r1, r1, #1, #3
    28cc:	2901      	cmp	r1, #1
    28ce:	d018      	beq.n	2902 <uart2_irq+0x3e>
    28d0:	2902      	cmp	r1, #2
    28d2:	d114      	bne.n	28fe <uart2_irq+0x3a>
    28d4:	4a14      	ldr	r2, [pc, #80]	; (2928 <uart2_irq+0x64>)
    28d6:	6f51      	ldr	r1, [r2, #116]	; 0x74
    28d8:	3101      	adds	r1, #1
    28da:	d006      	beq.n	28ea <uart2_irq+0x26>
    28dc:	f8d2 1080 	ldr.w	r1, [r2, #128]	; 0x80
    28e0:	6f90      	ldr	r0, [r2, #120]	; 0x78
    28e2:	6008      	str	r0, [r1, #0]
    28e4:	f892 10a6 	ldrb.w	r1, [r2, #166]	; 0xa6
    28e8:	b191      	cbz	r1, 2910 <uart2_irq+0x4c>
    28ea:	6f10      	ldr	r0, [r2, #112]	; 0x70
    28ec:	4b0e      	ldr	r3, [pc, #56]	; (2928 <uart2_irq+0x64>)
    28ee:	b1b8      	cbz	r0, 2920 <uart2_irq+0x5c>
    28f0:	f893 30a6 	ldrb.w	r3, [r3, #166]	; 0xa6
    28f4:	b123      	cbz	r3, 2900 <uart2_irq+0x3c>
    28f6:	4b0d      	ldr	r3, [pc, #52]	; (292c <uart2_irq+0x68>)
    28f8:	2100      	movs	r1, #0
    28fa:	681b      	ldr	r3, [r3, #0]
    28fc:	4718      	bx	r3
    28fe:	4770      	bx	lr
    2900:	4770      	bx	lr
    2902:	4b09      	ldr	r3, [pc, #36]	; (2928 <uart2_irq+0x64>)
    2904:	6f18      	ldr	r0, [r3, #112]	; 0x70
    2906:	2800      	cmp	r0, #0
    2908:	d0fa      	beq.n	2900 <uart2_irq+0x3c>
    290a:	4b08      	ldr	r3, [pc, #32]	; (292c <uart2_irq+0x68>)
    290c:	681b      	ldr	r3, [r3, #0]
    290e:	4718      	bx	r3
    2910:	6859      	ldr	r1, [r3, #4]
    2912:	f021 0101 	bic.w	r1, r1, #1
    2916:	6059      	str	r1, [r3, #4]
    2918:	6f10      	ldr	r0, [r2, #112]	; 0x70
    291a:	4b03      	ldr	r3, [pc, #12]	; (2928 <uart2_irq+0x64>)
    291c:	2800      	cmp	r0, #0
    291e:	d1e7      	bne.n	28f0 <uart2_irq+0x2c>
    2920:	4770      	bx	lr
    2922:	bf00      	nop
    2924:	40098000 	.word	0x40098000
    2928:	100003f8 	.word	0x100003f8
    292c:	100003f4 	.word	0x100003f4

00002930 <serial_irq_set_internal>:
    2930:	b570      	push	{r4, r5, r6, lr}
    2932:	6803      	ldr	r3, [r0, #0]
    2934:	4c28      	ldr	r4, [pc, #160]	; (29d8 <serial_irq_set_internal+0xa8>)
    2936:	42a3      	cmp	r3, r4
    2938:	d047      	beq.n	29ca <serial_irq_set_internal+0x9a>
    293a:	dd3f      	ble.n	29bc <serial_irq_set_internal+0x8c>
    293c:	4c27      	ldr	r4, [pc, #156]	; (29dc <serial_irq_set_internal+0xac>)
    293e:	42a3      	cmp	r3, r4
    2940:	d029      	beq.n	2996 <serial_irq_set_internal+0x66>
    2942:	f504 4480 	add.w	r4, r4, #16384	; 0x4000
    2946:	42a3      	cmp	r3, r4
    2948:	d142      	bne.n	29d0 <serial_irq_set_internal+0xa0>
    294a:	4c25      	ldr	r4, [pc, #148]	; (29e0 <serial_irq_set_internal+0xb0>)
    294c:	2608      	movs	r6, #8
    294e:	bb32      	cbnz	r2, 299e <serial_irq_set_internal+0x6e>
    2950:	2901      	cmp	r1, #1
    2952:	d00b      	beq.n	296c <serial_irq_set_internal+0x3c>
    2954:	6842      	ldr	r2, [r0, #4]
    2956:	4c23      	ldr	r4, [pc, #140]	; (29e4 <serial_irq_set_internal+0xb4>)
    2958:	ebc2 02c2 	rsb	r2, r2, r2, lsl #3
    295c:	eb04 02c2 	add.w	r2, r4, r2, lsl #3
    2960:	f892 4036 	ldrb.w	r4, [r2, #54]	; 0x36
    2964:	3230      	adds	r2, #48	; 0x30
    2966:	7952      	ldrb	r2, [r2, #5]
    2968:	42d4      	cmn	r4, r2
    296a:	d113      	bne.n	2994 <serial_irq_set_internal+0x64>
    296c:	fab1 f481 	clz	r4, r1
    2970:	685d      	ldr	r5, [r3, #4]
    2972:	2201      	movs	r2, #1
    2974:	fa02 f101 	lsl.w	r1, r2, r1
    2978:	ea25 0101 	bic.w	r1, r5, r1
    297c:	6059      	str	r1, [r3, #4]
    297e:	6803      	ldr	r3, [r0, #0]
    2980:	0964      	lsrs	r4, r4, #5
    2982:	685b      	ldr	r3, [r3, #4]
    2984:	fa02 f104 	lsl.w	r1, r2, r4
    2988:	4219      	tst	r1, r3
    298a:	d103      	bne.n	2994 <serial_irq_set_internal+0x64>
    298c:	4b16      	ldr	r3, [pc, #88]	; (29e8 <serial_irq_set_internal+0xb8>)
    298e:	40b2      	lsls	r2, r6
    2990:	f8c3 2080 	str.w	r2, [r3, #128]	; 0x80
    2994:	bd70      	pop	{r4, r5, r6, pc}
    2996:	4c15      	ldr	r4, [pc, #84]	; (29ec <serial_irq_set_internal+0xbc>)
    2998:	2607      	movs	r6, #7
    299a:	2a00      	cmp	r2, #0
    299c:	d0d8      	beq.n	2950 <serial_irq_set_internal+0x20>
    299e:	685a      	ldr	r2, [r3, #4]
    29a0:	2501      	movs	r5, #1
    29a2:	fa05 f101 	lsl.w	r1, r5, r1
    29a6:	430a      	orrs	r2, r1
    29a8:	b276      	sxtb	r6, r6
    29aa:	605a      	str	r2, [r3, #4]
    29ac:	4621      	mov	r1, r4
    29ae:	4630      	mov	r0, r6
    29b0:	f7ff fbaa 	bl	2108 <NVIC_SetVector>
    29b4:	4b0c      	ldr	r3, [pc, #48]	; (29e8 <serial_irq_set_internal+0xb8>)
    29b6:	40b5      	lsls	r5, r6
    29b8:	601d      	str	r5, [r3, #0]
    29ba:	bd70      	pop	{r4, r5, r6, pc}
    29bc:	f5a4 4480 	sub.w	r4, r4, #16384	; 0x4000
    29c0:	42a3      	cmp	r3, r4
    29c2:	d105      	bne.n	29d0 <serial_irq_set_internal+0xa0>
    29c4:	4c0a      	ldr	r4, [pc, #40]	; (29f0 <serial_irq_set_internal+0xc0>)
    29c6:	2605      	movs	r6, #5
    29c8:	e7c1      	b.n	294e <serial_irq_set_internal+0x1e>
    29ca:	4c0a      	ldr	r4, [pc, #40]	; (29f4 <serial_irq_set_internal+0xc4>)
    29cc:	2606      	movs	r6, #6
    29ce:	e7be      	b.n	294e <serial_irq_set_internal+0x1e>
    29d0:	2400      	movs	r4, #0
    29d2:	4626      	mov	r6, r4
    29d4:	e7bb      	b.n	294e <serial_irq_set_internal+0x1e>
    29d6:	bf00      	nop
    29d8:	40010000 	.word	0x40010000
    29dc:	40098000 	.word	0x40098000
    29e0:	000029f9 	.word	0x000029f9
    29e4:	100003f8 	.word	0x100003f8
    29e8:	e000e100 	.word	0xe000e100
    29ec:	000028c5 	.word	0x000028c5
    29f0:	00002a6d 	.word	0x00002a6d
    29f4:	00002ad5 	.word	0x00002ad5

000029f8 <uart3_irq>:
    29f8:	4b19      	ldr	r3, [pc, #100]	; (2a60 <uart3_irq+0x68>)
    29fa:	6899      	ldr	r1, [r3, #8]
    29fc:	f3c1 0142 	ubfx	r1, r1, #1, #3
    2a00:	2901      	cmp	r1, #1
    2a02:	d01b      	beq.n	2a3c <uart3_irq+0x44>
    2a04:	2902      	cmp	r1, #2
    2a06:	d117      	bne.n	2a38 <uart3_irq+0x40>
    2a08:	4a16      	ldr	r2, [pc, #88]	; (2a64 <uart3_irq+0x6c>)
    2a0a:	f8d2 10ac 	ldr.w	r1, [r2, #172]	; 0xac
    2a0e:	3101      	adds	r1, #1
    2a10:	d007      	beq.n	2a22 <uart3_irq+0x2a>
    2a12:	f8d2 10b8 	ldr.w	r1, [r2, #184]	; 0xb8
    2a16:	f8d2 00b0 	ldr.w	r0, [r2, #176]	; 0xb0
    2a1a:	6008      	str	r0, [r1, #0]
    2a1c:	f892 10de 	ldrb.w	r1, [r2, #222]	; 0xde
    2a20:	b1a1      	cbz	r1, 2a4c <uart3_irq+0x54>
    2a22:	f8d2 00a8 	ldr.w	r0, [r2, #168]	; 0xa8
    2a26:	4b0f      	ldr	r3, [pc, #60]	; (2a64 <uart3_irq+0x6c>)
    2a28:	b1c8      	cbz	r0, 2a5e <uart3_irq+0x66>
    2a2a:	f893 30de 	ldrb.w	r3, [r3, #222]	; 0xde
    2a2e:	b123      	cbz	r3, 2a3a <uart3_irq+0x42>
    2a30:	4b0d      	ldr	r3, [pc, #52]	; (2a68 <uart3_irq+0x70>)
    2a32:	2100      	movs	r1, #0
    2a34:	681b      	ldr	r3, [r3, #0]
    2a36:	4718      	bx	r3
    2a38:	4770      	bx	lr
    2a3a:	4770      	bx	lr
    2a3c:	4b09      	ldr	r3, [pc, #36]	; (2a64 <uart3_irq+0x6c>)
    2a3e:	f8d3 00a8 	ldr.w	r0, [r3, #168]	; 0xa8
    2a42:	2800      	cmp	r0, #0
    2a44:	d0f9      	beq.n	2a3a <uart3_irq+0x42>
    2a46:	4b08      	ldr	r3, [pc, #32]	; (2a68 <uart3_irq+0x70>)
    2a48:	681b      	ldr	r3, [r3, #0]
    2a4a:	4718      	bx	r3
    2a4c:	6859      	ldr	r1, [r3, #4]
    2a4e:	f021 0101 	bic.w	r1, r1, #1
    2a52:	6059      	str	r1, [r3, #4]
    2a54:	f8d2 00a8 	ldr.w	r0, [r2, #168]	; 0xa8
    2a58:	4b02      	ldr	r3, [pc, #8]	; (2a64 <uart3_irq+0x6c>)
    2a5a:	2800      	cmp	r0, #0
    2a5c:	d1e5      	bne.n	2a2a <uart3_irq+0x32>
    2a5e:	4770      	bx	lr
    2a60:	4009c000 	.word	0x4009c000
    2a64:	100003f8 	.word	0x100003f8
    2a68:	100003f4 	.word	0x100003f4

00002a6c <uart0_irq>:
    2a6c:	4b16      	ldr	r3, [pc, #88]	; (2ac8 <uart0_irq+0x5c>)
    2a6e:	6899      	ldr	r1, [r3, #8]
    2a70:	f3c1 0142 	ubfx	r1, r1, #1, #3
    2a74:	2901      	cmp	r1, #1
    2a76:	d017      	beq.n	2aa8 <uart0_irq+0x3c>
    2a78:	2902      	cmp	r1, #2
    2a7a:	d113      	bne.n	2aa4 <uart0_irq+0x38>
    2a7c:	4a13      	ldr	r2, [pc, #76]	; (2acc <uart0_irq+0x60>)
    2a7e:	6851      	ldr	r1, [r2, #4]
    2a80:	3101      	adds	r1, #1
    2a82:	d005      	beq.n	2a90 <uart0_irq+0x24>
    2a84:	6911      	ldr	r1, [r2, #16]
    2a86:	6890      	ldr	r0, [r2, #8]
    2a88:	6008      	str	r0, [r1, #0]
    2a8a:	f892 1036 	ldrb.w	r1, [r2, #54]	; 0x36
    2a8e:	b191      	cbz	r1, 2ab6 <uart0_irq+0x4a>
    2a90:	6810      	ldr	r0, [r2, #0]
    2a92:	4b0e      	ldr	r3, [pc, #56]	; (2acc <uart0_irq+0x60>)
    2a94:	b1b8      	cbz	r0, 2ac6 <uart0_irq+0x5a>
    2a96:	f893 3036 	ldrb.w	r3, [r3, #54]	; 0x36
    2a9a:	b123      	cbz	r3, 2aa6 <uart0_irq+0x3a>
    2a9c:	4b0c      	ldr	r3, [pc, #48]	; (2ad0 <uart0_irq+0x64>)
    2a9e:	2100      	movs	r1, #0
    2aa0:	681b      	ldr	r3, [r3, #0]
    2aa2:	4718      	bx	r3
    2aa4:	4770      	bx	lr
    2aa6:	4770      	bx	lr
    2aa8:	4b08      	ldr	r3, [pc, #32]	; (2acc <uart0_irq+0x60>)
    2aaa:	6818      	ldr	r0, [r3, #0]
    2aac:	2800      	cmp	r0, #0
    2aae:	d0fa      	beq.n	2aa6 <uart0_irq+0x3a>
    2ab0:	4b07      	ldr	r3, [pc, #28]	; (2ad0 <uart0_irq+0x64>)
    2ab2:	681b      	ldr	r3, [r3, #0]
    2ab4:	4718      	bx	r3
    2ab6:	6859      	ldr	r1, [r3, #4]
    2ab8:	f021 0101 	bic.w	r1, r1, #1
    2abc:	6059      	str	r1, [r3, #4]
    2abe:	6810      	ldr	r0, [r2, #0]
    2ac0:	4b02      	ldr	r3, [pc, #8]	; (2acc <uart0_irq+0x60>)
    2ac2:	2800      	cmp	r0, #0
    2ac4:	d1e7      	bne.n	2a96 <uart0_irq+0x2a>
    2ac6:	4770      	bx	lr
    2ac8:	4000c000 	.word	0x4000c000
    2acc:	100003f8 	.word	0x100003f8
    2ad0:	100003f4 	.word	0x100003f4

00002ad4 <uart1_irq>:
    2ad4:	4b16      	ldr	r3, [pc, #88]	; (2b30 <uart1_irq+0x5c>)
    2ad6:	6899      	ldr	r1, [r3, #8]
    2ad8:	f3c1 0142 	ubfx	r1, r1, #1, #3
    2adc:	2901      	cmp	r1, #1
    2ade:	d017      	beq.n	2b10 <uart1_irq+0x3c>
    2ae0:	2902      	cmp	r1, #2
    2ae2:	d113      	bne.n	2b0c <uart1_irq+0x38>
    2ae4:	4a13      	ldr	r2, [pc, #76]	; (2b34 <uart1_irq+0x60>)
    2ae6:	6bd1      	ldr	r1, [r2, #60]	; 0x3c
    2ae8:	3101      	adds	r1, #1
    2aea:	d005      	beq.n	2af8 <uart1_irq+0x24>
    2aec:	6c91      	ldr	r1, [r2, #72]	; 0x48
    2aee:	6c10      	ldr	r0, [r2, #64]	; 0x40
    2af0:	6008      	str	r0, [r1, #0]
    2af2:	f892 106e 	ldrb.w	r1, [r2, #110]	; 0x6e
    2af6:	b191      	cbz	r1, 2b1e <uart1_irq+0x4a>
    2af8:	6b90      	ldr	r0, [r2, #56]	; 0x38
    2afa:	4b0e      	ldr	r3, [pc, #56]	; (2b34 <uart1_irq+0x60>)
    2afc:	b1b8      	cbz	r0, 2b2e <uart1_irq+0x5a>
    2afe:	f893 306e 	ldrb.w	r3, [r3, #110]	; 0x6e
    2b02:	b123      	cbz	r3, 2b0e <uart1_irq+0x3a>
    2b04:	4b0c      	ldr	r3, [pc, #48]	; (2b38 <uart1_irq+0x64>)
    2b06:	2100      	movs	r1, #0
    2b08:	681b      	ldr	r3, [r3, #0]
    2b0a:	4718      	bx	r3
    2b0c:	4770      	bx	lr
    2b0e:	4770      	bx	lr
    2b10:	4b08      	ldr	r3, [pc, #32]	; (2b34 <uart1_irq+0x60>)
    2b12:	6b98      	ldr	r0, [r3, #56]	; 0x38
    2b14:	2800      	cmp	r0, #0
    2b16:	d0fa      	beq.n	2b0e <uart1_irq+0x3a>
    2b18:	4b07      	ldr	r3, [pc, #28]	; (2b38 <uart1_irq+0x64>)
    2b1a:	681b      	ldr	r3, [r3, #0]
    2b1c:	4718      	bx	r3
    2b1e:	6859      	ldr	r1, [r3, #4]
    2b20:	f021 0101 	bic.w	r1, r1, #1
    2b24:	6059      	str	r1, [r3, #4]
    2b26:	6b90      	ldr	r0, [r2, #56]	; 0x38
    2b28:	4b02      	ldr	r3, [pc, #8]	; (2b34 <uart1_irq+0x60>)
    2b2a:	2800      	cmp	r0, #0
    2b2c:	d1e7      	bne.n	2afe <uart1_irq+0x2a>
    2b2e:	4770      	bx	lr
    2b30:	40010000 	.word	0x40010000
    2b34:	100003f8 	.word	0x100003f8
    2b38:	100003f4 	.word	0x100003f4

00002b3c <serial_baud>:
    2b3c:	e92d 4ff0 	stmdb	sp!, {r4, r5, r6, r7, r8, r9, r10, r11, lr}
    2b40:	6802      	ldr	r2, [r0, #0]
    2b42:	4b6a      	ldr	r3, [pc, #424]	; (2cec <serial_baud+0x1b0>)
    2b44:	b089      	sub	sp, #36	; 0x24
    2b46:	429a      	cmp	r2, r3
    2b48:	9007      	str	r0, [sp, #28]
    2b4a:	9206      	str	r2, [sp, #24]
    2b4c:	f000 80bc 	beq.w	2cc8 <serial_baud+0x18c>
    2b50:	f340 80a7 	ble.w	2ca2 <serial_baud+0x166>
    2b54:	4b66      	ldr	r3, [pc, #408]	; (2cf0 <serial_baud+0x1b4>)
    2b56:	9806      	ldr	r0, [sp, #24]
    2b58:	4298      	cmp	r0, r3
    2b5a:	f000 8089 	beq.w	2c70 <serial_baud+0x134>
    2b5e:	f503 4380 	add.w	r3, r3, #16384	; 0x4000
    2b62:	4298      	cmp	r0, r3
    2b64:	d10c      	bne.n	2b80 <serial_baud+0x44>
    2b66:	4b63      	ldr	r3, [pc, #396]	; (2cf4 <serial_baud+0x1b8>)
    2b68:	f8d3 21ac 	ldr.w	r2, [r3, #428]	; 0x1ac
    2b6c:	f422 2240 	bic.w	r2, r2, #786432	; 0xc0000
    2b70:	f8c3 21ac 	str.w	r2, [r3, #428]	; 0x1ac
    2b74:	f8d3 21ac 	ldr.w	r2, [r3, #428]	; 0x1ac
    2b78:	f442 2280 	orr.w	r2, r2, #262144	; 0x40000
    2b7c:	f8c3 21ac 	str.w	r2, [r3, #428]	; 0x1ac
    2b80:	4a5d      	ldr	r2, [pc, #372]	; (2cf8 <serial_baud+0x1bc>)
    2b82:	010b      	lsls	r3, r1, #4
    2b84:	6812      	ldr	r2, [r2, #0]
    2b86:	fbb2 f0f3 	udiv	r0, r2, r3
    2b8a:	fb03 2310 	mls	r3, r3, r0, r2
    2b8e:	9203      	str	r2, [sp, #12]
    2b90:	b280      	uxth	r0, r0
    2b92:	2b00      	cmp	r3, #0
    2b94:	f000 8083 	beq.w	2c9e <serial_baud+0x162>
    2b98:	9b03      	ldr	r3, [sp, #12]
    2b9a:	f04f 0801 	mov.w	r8, #1
    2b9e:	005a      	lsls	r2, r3, #1
    2ba0:	009c      	lsls	r4, r3, #2
    2ba2:	4694      	mov	r12, r2
    2ba4:	46a2      	mov	r10, r4
    2ba6:	46c3      	mov	r11, r8
    2ba8:	468e      	mov	lr, r1
    2baa:	4699      	mov	r9, r3
    2bac:	2300      	movs	r3, #0
    2bae:	9204      	str	r2, [sp, #16]
    2bb0:	9405      	str	r4, [sp, #20]
    2bb2:	9000      	str	r0, [sp, #0]
    2bb4:	9102      	str	r1, [sp, #8]
    2bb6:	9301      	str	r3, [sp, #4]
    2bb8:	2400      	movs	r4, #0
    2bba:	4625      	mov	r5, r4
    2bbc:	9e02      	ldr	r6, [sp, #8]
    2bbe:	fa5f f788 	uxtb.w	r7, r8
    2bc2:	f1bc 0f00 	cmp.w	r12, #0
    2bc6:	bfb5      	itete	lt
    2bc8:	fbbc f0f6 	udivlt	r0, r12, r6
    2bcc:	fbba f0f6 	udivge	r0, r10, r6
    2bd0:	0900      	lsrlt	r0, r0, #4
    2bd2:	0940      	lsrge	r0, r0, #5
    2bd4:	3001      	adds	r0, #1
    2bd6:	f3c0 004f 	ubfx	r0, r0, #1, #16
    2bda:	eb08 0204 	add.w	r2, r8, r4
    2bde:	2800      	cmp	r0, #0
    2be0:	d154      	bne.n	2c8c <serial_baud+0x150>
    2be2:	2c00      	cmp	r4, #0
    2be4:	d07e      	beq.n	2ce4 <serial_baud+0x1a8>
    2be6:	2002      	movs	r0, #2
    2be8:	4603      	mov	r3, r0
    2bea:	fb03 f302 	mul.w	r3, r3, r2
    2bee:	00db      	lsls	r3, r3, #3
    2bf0:	fbb9 f3f3 	udiv	r3, r9, r3
    2bf4:	3301      	adds	r3, #1
    2bf6:	ebc1 0353 	rsb	r3, r1, r3, lsr #1
    2bfa:	2b00      	cmp	r3, #0
    2bfc:	bfb8      	it	lt
    2bfe:	425b      	neglt	r3, r3
    2c00:	4573      	cmp	r3, lr
    2c02:	da05      	bge.n	2c10 <serial_baud+0xd4>
    2c04:	428b      	cmp	r3, r1
    2c06:	d046      	beq.n	2c96 <serial_baud+0x15a>
    2c08:	469e      	mov	lr, r3
    2c0a:	46bb      	mov	r11, r7
    2c0c:	e88d 0021 	stmia.w	sp, {r0, r5}
    2c10:	3401      	adds	r4, #1
    2c12:	b2e5      	uxtb	r5, r4
    2c14:	42bd      	cmp	r5, r7
    2c16:	440e      	add	r6, r1
    2c18:	d3d3      	bcc.n	2bc2 <serial_baud+0x86>
    2c1a:	9b03      	ldr	r3, [sp, #12]
    2c1c:	f108 0801 	add.w	r8, r8, #1
    2c20:	4499      	add	r9, r3
    2c22:	9b04      	ldr	r3, [sp, #16]
    2c24:	f1b8 0f10 	cmp.w	r8, #16
    2c28:	449c      	add	r12, r3
    2c2a:	9b05      	ldr	r3, [sp, #20]
    2c2c:	449a      	add	r10, r3
    2c2e:	9b02      	ldr	r3, [sp, #8]
    2c30:	440b      	add	r3, r1
    2c32:	9302      	str	r3, [sp, #8]
    2c34:	d1c0      	bne.n	2bb8 <serial_baud+0x7c>
    2c36:	9b01      	ldr	r3, [sp, #4]
    2c38:	9800      	ldr	r0, [sp, #0]
    2c3a:	ea43 150b 	orr.w	r5, r3, r11, lsl #4
    2c3e:	b2ed      	uxtb	r5, r5
    2c40:	9906      	ldr	r1, [sp, #24]
    2c42:	f3c0 2207 	ubfx	r2, r0, #8, #8
    2c46:	7b0b      	ldrb	r3, [r1, #12]
    2c48:	b2c0      	uxtb	r0, r0
    2c4a:	f043 0380 	orr.w	r3, r3, #128	; 0x80
    2c4e:	730b      	strb	r3, [r1, #12]
    2c50:	9907      	ldr	r1, [sp, #28]
    2c52:	680b      	ldr	r3, [r1, #0]
    2c54:	711a      	strb	r2, [r3, #4]
    2c56:	680b      	ldr	r3, [r1, #0]
    2c58:	7018      	strb	r0, [r3, #0]
    2c5a:	680b      	ldr	r3, [r1, #0]
    2c5c:	f883 5028 	strb.w	r5, [r3, #40]	; 0x28
    2c60:	680a      	ldr	r2, [r1, #0]
    2c62:	7b13      	ldrb	r3, [r2, #12]
    2c64:	f003 037f 	and.w	r3, r3, #127	; 0x7f
    2c68:	7313      	strb	r3, [r2, #12]
    2c6a:	b009      	add	sp, #36	; 0x24
    2c6c:	e8bd 8ff0 	ldmia.w	sp!, {r4, r5, r6, r7, r8, r9, r10, r11, pc}
    2c70:	4b20      	ldr	r3, [pc, #128]	; (2cf4 <serial_baud+0x1b8>)
    2c72:	f8d3 21ac 	ldr.w	r2, [r3, #428]	; 0x1ac
    2c76:	f422 3240 	bic.w	r2, r2, #196608	; 0x30000
    2c7a:	f8c3 21ac 	str.w	r2, [r3, #428]	; 0x1ac
    2c7e:	f8d3 21ac 	ldr.w	r2, [r3, #428]	; 0x1ac
    2c82:	f442 3280 	orr.w	r2, r2, #65536	; 0x10000
    2c86:	f8c3 21ac 	str.w	r2, [r3, #428]	; 0x1ac
    2c8a:	e779      	b.n	2b80 <serial_baud+0x44>
    2c8c:	2c00      	cmp	r4, #0
    2c8e:	d0ab      	beq.n	2be8 <serial_baud+0xac>
    2c90:	2801      	cmp	r0, #1
    2c92:	d8a9      	bhi.n	2be8 <serial_baud+0xac>
    2c94:	e7a7      	b.n	2be6 <serial_baud+0xaa>
    2c96:	ea45 1507 	orr.w	r5, r5, r7, lsl #4
    2c9a:	b2ed      	uxtb	r5, r5
    2c9c:	e7d0      	b.n	2c40 <serial_baud+0x104>
    2c9e:	2510      	movs	r5, #16
    2ca0:	e7ce      	b.n	2c40 <serial_baud+0x104>
    2ca2:	f5a3 4380 	sub.w	r3, r3, #16384	; 0x4000
    2ca6:	429a      	cmp	r2, r3
    2ca8:	f47f af6a 	bne.w	2b80 <serial_baud+0x44>
    2cac:	4b11      	ldr	r3, [pc, #68]	; (2cf4 <serial_baud+0x1b8>)
    2cae:	f8d3 21a8 	ldr.w	r2, [r3, #424]	; 0x1a8
    2cb2:	f022 02c0 	bic.w	r2, r2, #192	; 0xc0
    2cb6:	f8c3 21a8 	str.w	r2, [r3, #424]	; 0x1a8
    2cba:	f8d3 21a8 	ldr.w	r2, [r3, #424]	; 0x1a8
    2cbe:	f042 0240 	orr.w	r2, r2, #64	; 0x40
    2cc2:	f8c3 21a8 	str.w	r2, [r3, #424]	; 0x1a8
    2cc6:	e75b      	b.n	2b80 <serial_baud+0x44>
    2cc8:	4b0a      	ldr	r3, [pc, #40]	; (2cf4 <serial_baud+0x1b8>)
    2cca:	f8d3 21a8 	ldr.w	r2, [r3, #424]	; 0x1a8
    2cce:	f422 7240 	bic.w	r2, r2, #768	; 0x300
    2cd2:	f8c3 21a8 	str.w	r2, [r3, #424]	; 0x1a8
    2cd6:	f8d3 21a8 	ldr.w	r2, [r3, #424]	; 0x1a8
    2cda:	f442 7280 	orr.w	r2, r2, #256	; 0x100
    2cde:	f8c3 21a8 	str.w	r2, [r3, #424]	; 0x1a8
    2ce2:	e74d      	b.n	2b80 <serial_baud+0x44>
    2ce4:	2001      	movs	r0, #1
    2ce6:	4603      	mov	r3, r0
    2ce8:	e77f      	b.n	2bea <serial_baud+0xae>
    2cea:	bf00      	nop
    2cec:	40010000 	.word	0x40010000
    2cf0:	40098000 	.word	0x40098000
    2cf4:	400fc000 	.word	0x400fc000
    2cf8:	1000015c 	.word	0x1000015c

00002cfc <serial_irq_handler>:
    2cfc:	6843      	ldr	r3, [r0, #4]
    2cfe:	b410      	push	{r4}
    2d00:	4804      	ldr	r0, [pc, #16]	; (2d14 <serial_irq_handler+0x18>)
    2d02:	4c05      	ldr	r4, [pc, #20]	; (2d18 <serial_irq_handler+0x1c>)
    2d04:	ebc3 03c3 	rsb	r3, r3, r3, lsl #3
    2d08:	f844 2033 	str.w	r2, [r4, r3, lsl #3]
    2d0c:	6001      	str	r1, [r0, #0]
    2d0e:	f85d 4b04 	ldr.w	r4, [sp], #4
    2d12:	4770      	bx	lr
    2d14:	100003f4 	.word	0x100003f4
    2d18:	100003f8 	.word	0x100003f8

00002d1c <serial_getc>:
    2d1c:	6802      	ldr	r2, [r0, #0]
    2d1e:	7d13      	ldrb	r3, [r2, #20]
    2d20:	07db      	lsls	r3, r3, #31
    2d22:	d5fc      	bpl.n	2d1e <serial_getc+0x2>
    2d24:	6843      	ldr	r3, [r0, #4]
    2d26:	4909      	ldr	r1, [pc, #36]	; (2d4c <serial_getc+0x30>)
    2d28:	ebc3 03c3 	rsb	r3, r3, r3, lsl #3
    2d2c:	eb01 03c3 	add.w	r3, r1, r3, lsl #3
    2d30:	6859      	ldr	r1, [r3, #4]
    2d32:	7810      	ldrb	r0, [r2, #0]
    2d34:	3101      	adds	r1, #1
    2d36:	b2c0      	uxtb	r0, r0
    2d38:	d006      	beq.n	2d48 <serial_getc+0x2c>
    2d3a:	6959      	ldr	r1, [r3, #20]
    2d3c:	689b      	ldr	r3, [r3, #8]
    2d3e:	600b      	str	r3, [r1, #0]
    2d40:	6853      	ldr	r3, [r2, #4]
    2d42:	f043 0301 	orr.w	r3, r3, #1
    2d46:	6053      	str	r3, [r2, #4]
    2d48:	4770      	bx	lr
    2d4a:	bf00      	nop
    2d4c:	100003f8 	.word	0x100003f8

00002d50 <serial_writable>:
    2d50:	6843      	ldr	r3, [r0, #4]
    2d52:	4a17      	ldr	r2, [pc, #92]	; (2db0 <serial_writable+0x60>)
    2d54:	ebc3 03c3 	rsb	r3, r3, r3, lsl #3
    2d58:	00db      	lsls	r3, r3, #3
    2d5a:	18d1      	adds	r1, r2, r3
    2d5c:	b410      	push	{r4}
    2d5e:	69cc      	ldr	r4, [r1, #28]
    2d60:	3401      	adds	r4, #1
    2d62:	d011      	beq.n	2d88 <serial_writable+0x38>
    2d64:	460b      	mov	r3, r1
    2d66:	6b0a      	ldr	r2, [r1, #48]	; 0x30
    2d68:	331c      	adds	r3, #28
    2d6a:	685b      	ldr	r3, [r3, #4]
    2d6c:	6812      	ldr	r2, [r2, #0]
    2d6e:	421a      	tst	r2, r3
    2d70:	d003      	beq.n	2d7a <serial_writable+0x2a>
    2d72:	2000      	movs	r0, #0
    2d74:	f85d 4b04 	ldr.w	r4, [sp], #4
    2d78:	4770      	bx	lr
    2d7a:	6803      	ldr	r3, [r0, #0]
    2d7c:	f85d 4b04 	ldr.w	r4, [sp], #4
    2d80:	7d18      	ldrb	r0, [r3, #20]
    2d82:	f3c0 1080 	ubfx	r0, r0, #6, #1
    2d86:	4770      	bx	lr
    2d88:	6803      	ldr	r3, [r0, #0]
    2d8a:	7d1b      	ldrb	r3, [r3, #20]
    2d8c:	069b      	lsls	r3, r3, #26
    2d8e:	d408      	bmi.n	2da2 <serial_writable+0x52>
    2d90:	f891 0034 	ldrb.w	r0, [r1, #52]	; 0x34
    2d94:	f85d 4b04 	ldr.w	r4, [sp], #4
    2d98:	280f      	cmp	r0, #15
    2d9a:	bf8c      	ite	hi
    2d9c:	2000      	movhi	r0, #0
    2d9e:	2001      	movls	r0, #1
    2da0:	4770      	bx	lr
    2da2:	2300      	movs	r3, #0
    2da4:	f881 3034 	strb.w	r3, [r1, #52]	; 0x34
    2da8:	2001      	movs	r0, #1
    2daa:	f85d 4b04 	ldr.w	r4, [sp], #4
    2dae:	4770      	bx	lr
    2db0:	100003f8 	.word	0x100003f8

00002db4 <serial_putc>:
    2db4:	b538      	push	{r3, r4, r5, lr}
    2db6:	4604      	mov	r4, r0
    2db8:	460d      	mov	r5, r1
    2dba:	4620      	mov	r0, r4
    2dbc:	f7ff ffc8 	bl	2d50 <serial_writable>
    2dc0:	2800      	cmp	r0, #0
    2dc2:	d0fa      	beq.n	2dba <serial_putc+0x6>
    2dc4:	6823      	ldr	r3, [r4, #0]
    2dc6:	b2ed      	uxtb	r5, r5
    2dc8:	701d      	strb	r5, [r3, #0]
    2dca:	6863      	ldr	r3, [r4, #4]
    2dcc:	4a05      	ldr	r2, [pc, #20]	; (2de4 <serial_putc+0x30>)
    2dce:	ebc3 03c3 	rsb	r3, r3, r3, lsl #3
    2dd2:	eb02 03c3 	add.w	r3, r2, r3, lsl #3
    2dd6:	f893 2034 	ldrb.w	r2, [r3, #52]	; 0x34
    2dda:	3201      	adds	r2, #1
    2ddc:	f883 2034 	strb.w	r2, [r3, #52]	; 0x34
    2de0:	bd38      	pop	{r3, r4, r5, pc}
    2de2:	bf00      	nop
    2de4:	100003f8 	.word	0x100003f8

00002de8 <serial_set_flow_control>:
    2de8:	e92d 4ff0 	stmdb	sp!, {r4, r5, r6, r7, r8, r9, r10, r11, lr}
    2dec:	4604      	mov	r4, r0
    2dee:	4846      	ldr	r0, [pc, #280]	; (2f08 <serial_set_flow_control+0x120>)
    2df0:	6825      	ldr	r5, [r4, #0]
    2df2:	b083      	sub	sp, #12
    2df4:	4285      	cmp	r5, r0
    2df6:	460f      	mov	r7, r1
    2df8:	4691      	mov	r9, r2
    2dfa:	9301      	str	r3, [sp, #4]
    2dfc:	d043      	beq.n	2e86 <serial_set_flow_control+0x9e>
    2dfe:	f8d4 a004 	ldr.w	r10, [r4, #4]
    2e02:	2500      	movs	r5, #0
    2e04:	4653      	mov	r3, r10
    2e06:	4e41      	ldr	r6, [pc, #260]	; (2f0c <serial_set_flow_control+0x124>)
    2e08:	ea4f 08ca 	mov.w	r8, r10, lsl #3
    2e0c:	ebc3 03c3 	rsb	r3, r3, r3, lsl #3
    2e10:	ebca 0e08 	rsb	lr, r10, r8
    2e14:	2000      	movs	r0, #0
    2e16:	eb06 0ece 	add.w	lr, r6, lr, lsl #3
    2e1a:	f04f 3bff 	mov.w	r11, #4294967295
    2e1e:	eb06 03c3 	add.w	r3, r6, r3, lsl #3
    2e22:	4601      	mov	r1, r0
    2e24:	4602      	mov	r2, r0
    2e26:	f883 0035 	strb.w	r0, [r3, #53]	; 0x35
    2e2a:	f8ce b01c 	str.w	r11, [lr, #28]
    2e2e:	4620      	mov	r0, r4
    2e30:	f8ce b004 	str.w	r11, [lr, #4]
    2e34:	f7ff fd7c 	bl	2930 <serial_irq_set_internal>
    2e38:	b917      	cbnz	r7, 2e40 <serial_set_flow_control+0x58>
    2e3a:	b003      	add	sp, #12
    2e3c:	e8bd 8ff0 	ldmia.w	sp!, {r4, r5, r6, r7, r8, r9, r10, r11, pc}
    2e40:	4933      	ldr	r1, [pc, #204]	; (2f10 <serial_set_flow_control+0x128>)
    2e42:	4648      	mov	r0, r9
    2e44:	f7ff f8da 	bl	1ffc <pinmap_find_peripheral>
    2e48:	4932      	ldr	r1, [pc, #200]	; (2f14 <serial_set_flow_control+0x12c>)
    2e4a:	4683      	mov	r11, r0
    2e4c:	9801      	ldr	r0, [sp, #4]
    2e4e:	f7ff f8d5 	bl	1ffc <pinmap_find_peripheral>
    2e52:	1ebb      	subs	r3, r7, #2
    2e54:	2b01      	cmp	r3, #1
    2e56:	d937      	bls.n	2ec8 <serial_set_flow_control+0xe0>
    2e58:	2f01      	cmp	r7, #1
    2e5a:	d1ee      	bne.n	2e3a <serial_set_flow_control+0x52>
    2e5c:	f1b9 3fff 	cmp.w	r9, #4294967295
    2e60:	d0eb      	beq.n	2e3a <serial_set_flow_control+0x52>
    2e62:	4b29      	ldr	r3, [pc, #164]	; (2f08 <serial_set_flow_control+0x120>)
    2e64:	6822      	ldr	r2, [r4, #0]
    2e66:	2107      	movs	r1, #7
    2e68:	459b      	cmp	r11, r3
    2e6a:	7211      	strb	r1, [r2, #8]
    2e6c:	d113      	bne.n	2e96 <serial_set_flow_control+0xae>
    2e6e:	b195      	cbz	r5, 2e96 <serial_set_flow_control+0xae>
    2e70:	4648      	mov	r0, r9
    2e72:	7c2b      	ldrb	r3, [r5, #16]
    2e74:	4926      	ldr	r1, [pc, #152]	; (2f10 <serial_set_flow_control+0x128>)
    2e76:	f043 0340 	orr.w	r3, r3, #64	; 0x40
    2e7a:	742b      	strb	r3, [r5, #16]
    2e7c:	b003      	add	sp, #12
    2e7e:	e8bd 4ff0 	ldmia.w	sp!, {r4, r5, r6, r7, r8, r9, r10, r11, lr}
    2e82:	f7ff b889 	b.w	1f98 <pinmap_pinout>
    2e86:	7c2b      	ldrb	r3, [r5, #16]
    2e88:	f8d4 a004 	ldr.w	r10, [r4, #4]
    2e8c:	f003 033f 	and.w	r3, r3, #63	; 0x3f
    2e90:	742b      	strb	r3, [r5, #16]
    2e92:	6863      	ldr	r3, [r4, #4]
    2e94:	e7b7      	b.n	2e06 <serial_set_flow_control+0x1e>
    2e96:	ebca 0808 	rsb	r8, r10, r8
    2e9a:	eb06 00c8 	add.w	r0, r6, r8, lsl #3
    2e9e:	4649      	mov	r1, r9
    2ea0:	2501      	movs	r5, #1
    2ea2:	3004      	adds	r0, #4
    2ea4:	2200      	movs	r2, #0
    2ea6:	f7ff f859 	bl	1f5c <gpio_init_out_ex>
    2eaa:	4620      	mov	r0, r4
    2eac:	462a      	mov	r2, r5
    2eae:	6863      	ldr	r3, [r4, #4]
    2eb0:	2100      	movs	r1, #0
    2eb2:	ebc3 03c3 	rsb	r3, r3, r3, lsl #3
    2eb6:	eb06 06c3 	add.w	r6, r6, r3, lsl #3
    2eba:	f886 5035 	strb.w	r5, [r6, #53]	; 0x35
    2ebe:	b003      	add	sp, #12
    2ec0:	e8bd 4ff0 	ldmia.w	sp!, {r4, r5, r6, r7, r8, r9, r10, r11, lr}
    2ec4:	f7ff bd34 	b.w	2930 <serial_irq_set_internal>
    2ec8:	9b01      	ldr	r3, [sp, #4]
    2eca:	3301      	adds	r3, #1
    2ecc:	d00a      	beq.n	2ee4 <serial_set_flow_control+0xfc>
    2ece:	4b0e      	ldr	r3, [pc, #56]	; (2f08 <serial_set_flow_control+0x120>)
    2ed0:	4298      	cmp	r0, r3
    2ed2:	d00d      	beq.n	2ef0 <serial_set_flow_control+0x108>
    2ed4:	ebca 0008 	rsb	r0, r10, r8
    2ed8:	eb06 00c0 	add.w	r0, r6, r0, lsl #3
    2edc:	9901      	ldr	r1, [sp, #4]
    2ede:	301c      	adds	r0, #28
    2ee0:	f7ff f814 	bl	1f0c <gpio_init_in>
    2ee4:	2f03      	cmp	r7, #3
    2ee6:	d1a8      	bne.n	2e3a <serial_set_flow_control+0x52>
    2ee8:	f1b9 3fff 	cmp.w	r9, #4294967295
    2eec:	d1b9      	bne.n	2e62 <serial_set_flow_control+0x7a>
    2eee:	e7a4      	b.n	2e3a <serial_set_flow_control+0x52>
    2ef0:	2d00      	cmp	r5, #0
    2ef2:	d0ef      	beq.n	2ed4 <serial_set_flow_control+0xec>
    2ef4:	7c2b      	ldrb	r3, [r5, #16]
    2ef6:	9801      	ldr	r0, [sp, #4]
    2ef8:	f043 0380 	orr.w	r3, r3, #128	; 0x80
    2efc:	742b      	strb	r3, [r5, #16]
    2efe:	4905      	ldr	r1, [pc, #20]	; (2f14 <serial_set_flow_control+0x12c>)
    2f00:	f7ff f84a 	bl	1f98 <pinmap_pinout>
    2f04:	e7ee      	b.n	2ee4 <serial_set_flow_control+0xfc>
    2f06:	bf00      	nop
    2f08:	40010000 	.word	0x40010000
    2f0c:	100003f8 	.word	0x100003f8
    2f10:	00006ebc 	.word	0x00006ebc
    2f14:	00006fb8 	.word	0x00006fb8

00002f18 <serial_init>:
    2f18:	e92d 41f0 	stmdb	sp!, {r4, r5, r6, r7, r8, lr}
    2f1c:	4605      	mov	r5, r0
    2f1e:	460f      	mov	r7, r1
    2f20:	4608      	mov	r0, r1
    2f22:	4959      	ldr	r1, [pc, #356]	; (3088 <serial_init+0x170>)
    2f24:	4616      	mov	r6, r2
    2f26:	f7ff f877 	bl	2018 <pinmap_peripheral>
    2f2a:	4958      	ldr	r1, [pc, #352]	; (308c <serial_init+0x174>)
    2f2c:	4604      	mov	r4, r0
    2f2e:	4630      	mov	r0, r6
    2f30:	f7ff f872 	bl	2018 <pinmap_peripheral>
    2f34:	4601      	mov	r1, r0
    2f36:	4620      	mov	r0, r4
    2f38:	f7ff f84e 	bl	1fd8 <pinmap_merge>
    2f3c:	4b54      	ldr	r3, [pc, #336]	; (3090 <serial_init+0x178>)
    2f3e:	4604      	mov	r4, r0
    2f40:	4298      	cmp	r0, r3
    2f42:	6028      	str	r0, [r5, #0]
    2f44:	d07f      	beq.n	3046 <serial_init+0x12e>
    2f46:	d96f      	bls.n	3028 <serial_init+0x110>
    2f48:	4b52      	ldr	r3, [pc, #328]	; (3094 <serial_init+0x17c>)
    2f4a:	4298      	cmp	r0, r3
    2f4c:	d04b      	beq.n	2fe6 <serial_init+0xce>
    2f4e:	f503 4380 	add.w	r3, r3, #16384	; 0x4000
    2f52:	4298      	cmp	r0, r3
    2f54:	d106      	bne.n	2f64 <serial_init+0x4c>
    2f56:	4a50      	ldr	r2, [pc, #320]	; (3098 <serial_init+0x180>)
    2f58:	f8d2 30c4 	ldr.w	r3, [r2, #196]	; 0xc4
    2f5c:	f043 7300 	orr.w	r3, r3, #33554432	; 0x2000000
    2f60:	f8c2 30c4 	str.w	r3, [r2, #196]	; 0xc4
    2f64:	2301      	movs	r3, #1
    2f66:	7223      	strb	r3, [r4, #8]
    2f68:	682b      	ldr	r3, [r5, #0]
    2f6a:	f04f 0800 	mov.w	r8, #0
    2f6e:	f8c3 8004 	str.w	r8, [r3, #4]
    2f72:	4628      	mov	r0, r5
    2f74:	f44f 5116 	mov.w	r1, #9600	; 0x2580
    2f78:	f7ff fde0 	bl	2b3c <serial_baud>
    2f7c:	682b      	ldr	r3, [r5, #0]
    2f7e:	2203      	movs	r2, #3
    2f80:	731a      	strb	r2, [r3, #12]
    2f82:	4638      	mov	r0, r7
    2f84:	4940      	ldr	r1, [pc, #256]	; (3088 <serial_init+0x170>)
    2f86:	f7ff f807 	bl	1f98 <pinmap_pinout>
    2f8a:	4630      	mov	r0, r6
    2f8c:	493f      	ldr	r1, [pc, #252]	; (308c <serial_init+0x174>)
    2f8e:	f7ff f803 	bl	1f98 <pinmap_pinout>
    2f92:	1c7a      	adds	r2, r7, #1
    2f94:	d003      	beq.n	2f9e <serial_init+0x86>
    2f96:	4638      	mov	r0, r7
    2f98:	4641      	mov	r1, r8
    2f9a:	f7ff fba7 	bl	26ec <pin_mode>
    2f9e:	1c73      	adds	r3, r6, #1
    2fa0:	d003      	beq.n	2faa <serial_init+0x92>
    2fa2:	4630      	mov	r0, r6
    2fa4:	2100      	movs	r1, #0
    2fa6:	f7ff fba1 	bl	26ec <pin_mode>
    2faa:	4b39      	ldr	r3, [pc, #228]	; (3090 <serial_init+0x178>)
    2fac:	429c      	cmp	r4, r3
    2fae:	d047      	beq.n	3040 <serial_init+0x128>
    2fb0:	d921      	bls.n	2ff6 <serial_init+0xde>
    2fb2:	4b38      	ldr	r3, [pc, #224]	; (3094 <serial_init+0x17c>)
    2fb4:	429c      	cmp	r4, r3
    2fb6:	d063      	beq.n	3080 <serial_init+0x168>
    2fb8:	f503 4380 	add.w	r3, r3, #16384	; 0x4000
    2fbc:	429c      	cmp	r4, r3
    2fbe:	d14a      	bne.n	3056 <serial_init+0x13e>
    2fc0:	2303      	movs	r3, #3
    2fc2:	606b      	str	r3, [r5, #4]
    2fc4:	4c35      	ldr	r4, [pc, #212]	; (309c <serial_init+0x184>)
    2fc6:	ebc3 03c3 	rsb	r3, r3, r3, lsl #3
    2fca:	f04f 36ff 	mov.w	r6, #4294967295
    2fce:	eb04 04c3 	add.w	r4, r4, r3, lsl #3
    2fd2:	4628      	mov	r0, r5
    2fd4:	4632      	mov	r2, r6
    2fd6:	4633      	mov	r3, r6
    2fd8:	6066      	str	r6, [r4, #4]
    2fda:	61e6      	str	r6, [r4, #28]
    2fdc:	2100      	movs	r1, #0
    2fde:	e8bd 41f0 	ldmia.w	sp!, {r4, r5, r6, r7, r8, lr}
    2fe2:	f7ff bf01 	b.w	2de8 <serial_set_flow_control>
    2fe6:	4a2c      	ldr	r2, [pc, #176]	; (3098 <serial_init+0x180>)
    2fe8:	f8d2 30c4 	ldr.w	r3, [r2, #196]	; 0xc4
    2fec:	f043 7380 	orr.w	r3, r3, #16777216	; 0x1000000
    2ff0:	f8c2 30c4 	str.w	r3, [r2, #196]	; 0xc4
    2ff4:	e7b6      	b.n	2f64 <serial_init+0x4c>
    2ff6:	f5a3 4380 	sub.w	r3, r3, #16384	; 0x4000
    2ffa:	429c      	cmp	r4, r3
    2ffc:	d12b      	bne.n	3056 <serial_init+0x13e>
    2ffe:	4e27      	ldr	r6, [pc, #156]	; (309c <serial_init+0x184>)
    3000:	f04f 34ff 	mov.w	r4, #4294967295
    3004:	2100      	movs	r1, #0
    3006:	6069      	str	r1, [r5, #4]
    3008:	4622      	mov	r2, r4
    300a:	4623      	mov	r3, r4
    300c:	4628      	mov	r0, r5
    300e:	6074      	str	r4, [r6, #4]
    3010:	61f4      	str	r4, [r6, #28]
    3012:	f7ff fee9 	bl	2de8 <serial_set_flow_control>
    3016:	4b22      	ldr	r3, [pc, #136]	; (30a0 <serial_init+0x188>)
    3018:	2201      	movs	r2, #1
    301a:	601a      	str	r2, [r3, #0]
    301c:	6828      	ldr	r0, [r5, #0]
    301e:	6869      	ldr	r1, [r5, #4]
    3020:	4b20      	ldr	r3, [pc, #128]	; (30a4 <serial_init+0x18c>)
    3022:	c303      	stmia	r3!, {r0, r1}
    3024:	e8bd 81f0 	ldmia.w	sp!, {r4, r5, r6, r7, r8, pc}
    3028:	f5a3 4380 	sub.w	r3, r3, #16384	; 0x4000
    302c:	4298      	cmp	r0, r3
    302e:	d199      	bne.n	2f64 <serial_init+0x4c>
    3030:	4a19      	ldr	r2, [pc, #100]	; (3098 <serial_init+0x180>)
    3032:	f8d2 30c4 	ldr.w	r3, [r2, #196]	; 0xc4
    3036:	f043 0308 	orr.w	r3, r3, #8
    303a:	f8c2 30c4 	str.w	r3, [r2, #196]	; 0xc4
    303e:	e791      	b.n	2f64 <serial_init+0x4c>
    3040:	2301      	movs	r3, #1
    3042:	606b      	str	r3, [r5, #4]
    3044:	e7be      	b.n	2fc4 <serial_init+0xac>
    3046:	4a14      	ldr	r2, [pc, #80]	; (3098 <serial_init+0x180>)
    3048:	f8d2 30c4 	ldr.w	r3, [r2, #196]	; 0xc4
    304c:	f043 0310 	orr.w	r3, r3, #16
    3050:	f8c2 30c4 	str.w	r3, [r2, #196]	; 0xc4
    3054:	e786      	b.n	2f64 <serial_init+0x4c>
    3056:	686e      	ldr	r6, [r5, #4]
    3058:	4b10      	ldr	r3, [pc, #64]	; (309c <serial_init+0x184>)
    305a:	ebc6 06c6 	rsb	r6, r6, r6, lsl #3
    305e:	f04f 37ff 	mov.w	r7, #4294967295
    3062:	eb03 06c6 	add.w	r6, r3, r6, lsl #3
    3066:	463a      	mov	r2, r7
    3068:	463b      	mov	r3, r7
    306a:	4628      	mov	r0, r5
    306c:	2100      	movs	r1, #0
    306e:	6077      	str	r7, [r6, #4]
    3070:	61f7      	str	r7, [r6, #28]
    3072:	f7ff feb9 	bl	2de8 <serial_set_flow_control>
    3076:	4b0c      	ldr	r3, [pc, #48]	; (30a8 <serial_init+0x190>)
    3078:	429c      	cmp	r4, r3
    307a:	d0cc      	beq.n	3016 <serial_init+0xfe>
    307c:	e8bd 81f0 	ldmia.w	sp!, {r4, r5, r6, r7, r8, pc}
    3080:	2302      	movs	r3, #2
    3082:	606b      	str	r3, [r5, #4]
    3084:	e79e      	b.n	2fc4 <serial_init+0xac>
    3086:	bf00      	nop
    3088:	00006f4c 	.word	0x00006f4c
    308c:	00006ee0 	.word	0x00006ee0
    3090:	40010000 	.word	0x40010000
    3094:	40098000 	.word	0x40098000
    3098:	400fc000 	.word	0x400fc000
    309c:	100003f8 	.word	0x100003f8
    30a0:	100003f0 	.word	0x100003f0
    30a4:	100011ec 	.word	0x100011ec
    30a8:	4000c000 	.word	0x4000c000

000030ac <us_ticker_init.part.0>:
    30ac:	b538      	push	{r3, r4, r5, lr}
    30ae:	4912      	ldr	r1, [pc, #72]	; (30f8 <us_ticker_init.part.0+0x4c>)
    30b0:	4b12      	ldr	r3, [pc, #72]	; (30fc <us_ticker_init.part.0+0x50>)
    30b2:	2401      	movs	r4, #1
    30b4:	601c      	str	r4, [r3, #0]
    30b6:	f8d1 30c4 	ldr.w	r3, [r1, #196]	; 0xc4
    30ba:	4a11      	ldr	r2, [pc, #68]	; (3100 <us_ticker_init.part.0+0x54>)
    30bc:	f443 0300 	orr.w	r3, r3, #8388608	; 0x800000
    30c0:	4810      	ldr	r0, [pc, #64]	; (3104 <us_ticker_init.part.0+0x58>)
    30c2:	2500      	movs	r5, #0
    30c4:	f8c1 30c4 	str.w	r3, [r1, #196]	; 0xc4
    30c8:	6715      	str	r5, [r2, #112]	; 0x70
    30ca:	6803      	ldr	r3, [r0, #0]
    30cc:	f101 7143 	add.w	r1, r1, #51118080	; 0x30c0000
    30d0:	f501 51f4 	add.w	r1, r1, #7808	; 0x1e80
    30d4:	3103      	adds	r1, #3
    30d6:	089b      	lsrs	r3, r3, #2
    30d8:	fba1 1303 	umull	r1, r3, r1, r3
    30dc:	0c9b      	lsrs	r3, r3, #18
    30de:	3b01      	subs	r3, #1
    30e0:	2102      	movs	r1, #2
    30e2:	6051      	str	r1, [r2, #4]
    30e4:	2004      	movs	r0, #4
    30e6:	60d3      	str	r3, [r2, #12]
    30e8:	4907      	ldr	r1, [pc, #28]	; (3108 <us_ticker_init.part.0+0x5c>)
    30ea:	6054      	str	r4, [r2, #4]
    30ec:	f7ff f80c 	bl	2108 <NVIC_SetVector>
    30f0:	4b06      	ldr	r3, [pc, #24]	; (310c <us_ticker_init.part.0+0x60>)
    30f2:	2210      	movs	r2, #16
    30f4:	601a      	str	r2, [r3, #0]
    30f6:	bd38      	pop	{r3, r4, r5, pc}
    30f8:	400fc000 	.word	0x400fc000
    30fc:	100004d8 	.word	0x100004d8
    3100:	40094000 	.word	0x40094000
    3104:	1000015c 	.word	0x1000015c
    3108:	000020c1 	.word	0x000020c1
    310c:	e000e100 	.word	0xe000e100

00003110 <us_ticker_init>:
    3110:	4b02      	ldr	r3, [pc, #8]	; (311c <us_ticker_init+0xc>)
    3112:	681b      	ldr	r3, [r3, #0]
    3114:	b103      	cbz	r3, 3118 <us_ticker_init+0x8>
    3116:	4770      	bx	lr
    3118:	f7ff bfc8 	b.w	30ac <us_ticker_init.part.0>
    311c:	100004d8 	.word	0x100004d8

00003120 <us_ticker_read>:
    3120:	b508      	push	{r3, lr}
    3122:	4b04      	ldr	r3, [pc, #16]	; (3134 <us_ticker_read+0x14>)
    3124:	681b      	ldr	r3, [r3, #0]
    3126:	b90b      	cbnz	r3, 312c <us_ticker_read+0xc>
    3128:	f7ff ffc0 	bl	30ac <us_ticker_init.part.0>
    312c:	4b02      	ldr	r3, [pc, #8]	; (3138 <us_ticker_read+0x18>)
    312e:	6898      	ldr	r0, [r3, #8]
    3130:	bd08      	pop	{r3, pc}
    3132:	bf00      	nop
    3134:	100004d8 	.word	0x100004d8
    3138:	40094000 	.word	0x40094000

0000313c <us_ticker_set_interrupt>:
    313c:	4b03      	ldr	r3, [pc, #12]	; (314c <us_ticker_set_interrupt+0x10>)
    313e:	6198      	str	r0, [r3, #24]
    3140:	695a      	ldr	r2, [r3, #20]
    3142:	f042 0201 	orr.w	r2, r2, #1
    3146:	615a      	str	r2, [r3, #20]
    3148:	4770      	bx	lr
    314a:	bf00      	nop
    314c:	40094000 	.word	0x40094000

00003150 <us_ticker_disable_interrupt>:
    3150:	4a02      	ldr	r2, [pc, #8]	; (315c <us_ticker_disable_interrupt+0xc>)
    3152:	6953      	ldr	r3, [r2, #20]
    3154:	f023 0301 	bic.w	r3, r3, #1
    3158:	6153      	str	r3, [r2, #20]
    315a:	4770      	bx	lr
    315c:	40094000 	.word	0x40094000

00003160 <us_ticker_clear_interrupt>:
    3160:	4b01      	ldr	r3, [pc, #4]	; (3168 <us_ticker_clear_interrupt+0x8>)
    3162:	2201      	movs	r2, #1
    3164:	601a      	str	r2, [r3, #0]
    3166:	4770      	bx	lr
    3168:	40094000 	.word	0x40094000

0000316c <mbed::FileBase::~FileBase()>:
    316c:	4a09      	ldr	r2, [pc, #36]	; (3194 <mbed::FileBase::~FileBase()+0x28>)
    316e:	6883      	ldr	r3, [r0, #8]
    3170:	6002      	str	r2, [r0, #0]
    3172:	b153      	cbz	r3, 318a <mbed::FileBase::~FileBase()+0x1e>
    3174:	4b08      	ldr	r3, [pc, #32]	; (3198 <mbed::FileBase::~FileBase()+0x2c>)
    3176:	681a      	ldr	r2, [r3, #0]
    3178:	4282      	cmp	r2, r0
    317a:	d101      	bne.n	3180 <mbed::FileBase::~FileBase()+0x14>
    317c:	e006      	b.n	318c <mbed::FileBase::~FileBase()+0x20>
    317e:	461a      	mov	r2, r3
    3180:	6853      	ldr	r3, [r2, #4]
    3182:	4283      	cmp	r3, r0
    3184:	d1fb      	bne.n	317e <mbed::FileBase::~FileBase()+0x12>
    3186:	6843      	ldr	r3, [r0, #4]
    3188:	6053      	str	r3, [r2, #4]
    318a:	4770      	bx	lr
    318c:	6842      	ldr	r2, [r0, #4]
    318e:	601a      	str	r2, [r3, #0]
    3190:	4770      	bx	lr
    3192:	bf00      	nop
    3194:	00006fe8 	.word	0x00006fe8
    3198:	100004dc 	.word	0x100004dc

0000319c <mbed::FileBase::~FileBase()>:
    319c:	4a0c      	ldr	r2, [pc, #48]	; (31d0 <mbed::FileBase::~FileBase()+0x34>)
    319e:	6883      	ldr	r3, [r0, #8]
    31a0:	b510      	push	{r4, lr}
    31a2:	4604      	mov	r4, r0
    31a4:	6002      	str	r2, [r0, #0]
    31a6:	b153      	cbz	r3, 31be <mbed::FileBase::~FileBase()+0x22>
    31a8:	4b0a      	ldr	r3, [pc, #40]	; (31d4 <mbed::FileBase::~FileBase()+0x38>)
    31aa:	681a      	ldr	r2, [r3, #0]
    31ac:	4290      	cmp	r0, r2
    31ae:	d101      	bne.n	31b4 <mbed::FileBase::~FileBase()+0x18>
    31b0:	e00a      	b.n	31c8 <mbed::FileBase::~FileBase()+0x2c>
    31b2:	461a      	mov	r2, r3
    31b4:	6853      	ldr	r3, [r2, #4]
    31b6:	429c      	cmp	r4, r3
    31b8:	d1fb      	bne.n	31b2 <mbed::FileBase::~FileBase()+0x16>
    31ba:	6863      	ldr	r3, [r4, #4]
    31bc:	6053      	str	r3, [r2, #4]
    31be:	4620      	mov	r0, r4
    31c0:	f000 fbbd 	bl	393e <operator delete(void*)>
    31c4:	4620      	mov	r0, r4
    31c6:	bd10      	pop	{r4, pc}
    31c8:	6842      	ldr	r2, [r0, #4]
    31ca:	601a      	str	r2, [r3, #0]
    31cc:	e7f7      	b.n	31be <mbed::FileBase::~FileBase()+0x22>
    31ce:	bf00      	nop
    31d0:	00006fe8 	.word	0x00006fe8
    31d4:	100004dc 	.word	0x100004dc

000031d8 <mbed::FileBase::FileBase(char const*, mbed::PathType)>:
    31d8:	b410      	push	{r4}
    31da:	4c07      	ldr	r4, [pc, #28]	; (31f8 <mbed::FileBase::FileBase(char const*, mbed::PathType)+0x20>)
    31dc:	2300      	movs	r3, #0
    31de:	7302      	strb	r2, [r0, #12]
    31e0:	6081      	str	r1, [r0, #8]
    31e2:	6004      	str	r4, [r0, #0]
    31e4:	6043      	str	r3, [r0, #4]
    31e6:	b119      	cbz	r1, 31f0 <mbed::FileBase::FileBase(char const*, mbed::PathType)+0x18>
    31e8:	4b04      	ldr	r3, [pc, #16]	; (31fc <mbed::FileBase::FileBase(char const*, mbed::PathType)+0x24>)
    31ea:	681a      	ldr	r2, [r3, #0]
    31ec:	6018      	str	r0, [r3, #0]
    31ee:	6042      	str	r2, [r0, #4]
    31f0:	f85d 4b04 	ldr.w	r4, [sp], #4
    31f4:	4770      	bx	lr
    31f6:	bf00      	nop
    31f8:	00006fe8 	.word	0x00006fe8
    31fc:	100004dc 	.word	0x100004dc

00003200 <mbed::FileBase::lookup(char const*, unsigned int)>:
    3200:	b5f8      	push	{r3, r4, r5, r6, r7, lr}
    3202:	4b0b      	ldr	r3, [pc, #44]	; (3230 <mbed::FileBase::lookup(char const*, unsigned int)+0x30>)
    3204:	4607      	mov	r7, r0
    3206:	681c      	ldr	r4, [r3, #0]
    3208:	460e      	mov	r6, r1
    320a:	b17c      	cbz	r4, 322c <mbed::FileBase::lookup(char const*, unsigned int)+0x2c>
    320c:	68a5      	ldr	r5, [r4, #8]
    320e:	b155      	cbz	r5, 3226 <mbed::FileBase::lookup(char const*, unsigned int)+0x26>
    3210:	4628      	mov	r0, r5
    3212:	4639      	mov	r1, r7
    3214:	4632      	mov	r2, r6
    3216:	f002 fe5c 	bl	5ed2 <strncmp>
    321a:	b920      	cbnz	r0, 3226 <mbed::FileBase::lookup(char const*, unsigned int)+0x26>
    321c:	4628      	mov	r0, r5
    321e:	f002 fe50 	bl	5ec2 <strlen>
    3222:	42b0      	cmp	r0, r6
    3224:	d002      	beq.n	322c <mbed::FileBase::lookup(char const*, unsigned int)+0x2c>
    3226:	6864      	ldr	r4, [r4, #4]
    3228:	2c00      	cmp	r4, #0
    322a:	d1ef      	bne.n	320c <mbed::FileBase::lookup(char const*, unsigned int)+0xc>
    322c:	4620      	mov	r0, r4
    322e:	bdf8      	pop	{r3, r4, r5, r6, r7, pc}
    3230:	100004dc 	.word	0x100004dc

00003234 <mbed::FileBase::getPathType()>:
    3234:	7b00      	ldrb	r0, [r0, #12]
    3236:	4770      	bx	lr

00003238 <mbed::FileHandle::flen()>:
    3238:	6803      	ldr	r3, [r0, #0]
    323a:	b570      	push	{r4, r5, r6, lr}
    323c:	691b      	ldr	r3, [r3, #16]
    323e:	2100      	movs	r1, #0
    3240:	2201      	movs	r2, #1
    3242:	4604      	mov	r4, r0
    3244:	4798      	blx	r3
    3246:	1c43      	adds	r3, r0, #1
    3248:	4606      	mov	r6, r0
    324a:	d00e      	beq.n	326a <mbed::FileHandle::flen()+0x32>
    324c:	6823      	ldr	r3, [r4, #0]
    324e:	4620      	mov	r0, r4
    3250:	691b      	ldr	r3, [r3, #16]
    3252:	2100      	movs	r1, #0
    3254:	2202      	movs	r2, #2
    3256:	4798      	blx	r3
    3258:	4605      	mov	r5, r0
    325a:	6823      	ldr	r3, [r4, #0]
    325c:	4631      	mov	r1, r6
    325e:	691b      	ldr	r3, [r3, #16]
    3260:	4620      	mov	r0, r4
    3262:	2200      	movs	r2, #0
    3264:	4798      	blx	r3
    3266:	4628      	mov	r0, r5
    3268:	bd70      	pop	{r4, r5, r6, pc}
    326a:	bd70      	pop	{r4, r5, r6, pc}

0000326c <mbed::FileLike::FileLike(char const*)>:
    326c:	b510      	push	{r4, lr}
    326e:	4604      	mov	r4, r0
    3270:	4b06      	ldr	r3, [pc, #24]	; (328c <mbed::FileLike::FileLike(char const*)+0x20>)
    3272:	2200      	movs	r2, #0
    3274:	f840 3b04 	str.w	r3, [r0], #4
    3278:	f7ff ffae 	bl	31d8 <mbed::FileBase::FileBase(char const*, mbed::PathType)>
    327c:	4b04      	ldr	r3, [pc, #16]	; (3290 <mbed::FileLike::FileLike(char const*)+0x24>)
    327e:	4620      	mov	r0, r4
    3280:	f103 0208 	add.w	r2, r3, #8
    3284:	3334      	adds	r3, #52	; 0x34
    3286:	e884 000c 	stmia.w	r4, {r2, r3}
    328a:	bd10      	pop	{r4, pc}
    328c:	00007050 	.word	0x00007050
    3290:	00006ff0 	.word	0x00006ff0

00003294 <mbed::FileLike::~FileLike()>:
    3294:	b510      	push	{r4, lr}
    3296:	4604      	mov	r4, r0
    3298:	4b06      	ldr	r3, [pc, #24]	; (32b4 <mbed::FileLike::~FileLike()+0x20>)
    329a:	f103 0208 	add.w	r2, r3, #8
    329e:	3334      	adds	r3, #52	; 0x34
    32a0:	6022      	str	r2, [r4, #0]
    32a2:	f840 3f04 	str.w	r3, [r0, #4]!
    32a6:	f7ff ff61 	bl	316c <mbed::FileBase::~FileBase()>
    32aa:	4620      	mov	r0, r4
    32ac:	f000 f8c8 	bl	3440 <mbed::FileHandle::~FileHandle()>
    32b0:	4620      	mov	r0, r4
    32b2:	bd10      	pop	{r4, pc}
    32b4:	00006ff0 	.word	0x00006ff0

000032b8 <mbed::FilePath::FilePath(char const*)>:
    32b8:	b538      	push	{r3, r4, r5, lr}
    32ba:	2300      	movs	r3, #0
    32bc:	6003      	str	r3, [r0, #0]
    32be:	6043      	str	r3, [r0, #4]
    32c0:	780a      	ldrb	r2, [r1, #0]
    32c2:	4604      	mov	r4, r0
    32c4:	2a2f      	cmp	r2, #47	; 0x2f
    32c6:	d001      	beq.n	32cc <mbed::FilePath::FilePath(char const*)+0x14>
    32c8:	4620      	mov	r0, r4
    32ca:	bd38      	pop	{r3, r4, r5, pc}
    32cc:	784a      	ldrb	r2, [r1, #1]
    32ce:	2a00      	cmp	r2, #0
    32d0:	d0fa      	beq.n	32c8 <mbed::FilePath::FilePath(char const*)+0x10>
    32d2:	1c48      	adds	r0, r1, #1
    32d4:	6020      	str	r0, [r4, #0]
    32d6:	784d      	ldrb	r5, [r1, #1]
    32d8:	2d2f      	cmp	r5, #47	; 0x2f
    32da:	d013      	beq.n	3304 <mbed::FilePath::FilePath(char const*)+0x4c>
    32dc:	b185      	cbz	r5, 3300 <mbed::FilePath::FilePath(char const*)+0x48>
    32de:	4603      	mov	r3, r0
    32e0:	e000      	b.n	32e4 <mbed::FilePath::FilePath(char const*)+0x2c>
    32e2:	b16a      	cbz	r2, 3300 <mbed::FilePath::FilePath(char const*)+0x48>
    32e4:	1a5d      	subs	r5, r3, r1
    32e6:	3301      	adds	r3, #1
    32e8:	6023      	str	r3, [r4, #0]
    32ea:	781a      	ldrb	r2, [r3, #0]
    32ec:	2a2f      	cmp	r2, #47	; 0x2f
    32ee:	d1f8      	bne.n	32e2 <mbed::FilePath::FilePath(char const*)+0x2a>
    32f0:	4629      	mov	r1, r5
    32f2:	3301      	adds	r3, #1
    32f4:	6023      	str	r3, [r4, #0]
    32f6:	f7ff ff83 	bl	3200 <mbed::FileBase::lookup(char const*, unsigned int)>
    32fa:	6060      	str	r0, [r4, #4]
    32fc:	4620      	mov	r0, r4
    32fe:	bd38      	pop	{r3, r4, r5, pc}
    3300:	4629      	mov	r1, r5
    3302:	e7f8      	b.n	32f6 <mbed::FilePath::FilePath(char const*)+0x3e>
    3304:	4619      	mov	r1, r3
    3306:	4603      	mov	r3, r0
    3308:	e7f3      	b.n	32f2 <mbed::FilePath::FilePath(char const*)+0x3a>
    330a:	bf00      	nop

0000330c <mbed::FilePath::fileName()>:
    330c:	6800      	ldr	r0, [r0, #0]
    330e:	4770      	bx	lr

00003310 <mbed::FilePath::fileSystem()>:
    3310:	6843      	ldr	r3, [r0, #4]
    3312:	b143      	cbz	r3, 3326 <mbed::FilePath::fileSystem()+0x16>
    3314:	b510      	push	{r4, lr}
    3316:	4604      	mov	r4, r0
    3318:	4618      	mov	r0, r3
    331a:	f7ff ff8b 	bl	3234 <mbed::FileBase::getPathType()>
    331e:	2801      	cmp	r0, #1
    3320:	d103      	bne.n	332a <mbed::FilePath::fileSystem()+0x1a>
    3322:	6860      	ldr	r0, [r4, #4]
    3324:	bd10      	pop	{r4, pc}
    3326:	2000      	movs	r0, #0
    3328:	4770      	bx	lr
    332a:	2000      	movs	r0, #0
    332c:	bd10      	pop	{r4, pc}
    332e:	bf00      	nop

00003330 <mbed::FilePath::isFile()>:
    3330:	6840      	ldr	r0, [r0, #4]
    3332:	b130      	cbz	r0, 3342 <mbed::FilePath::isFile()+0x12>
    3334:	b508      	push	{r3, lr}
    3336:	f7ff ff7d 	bl	3234 <mbed::FileBase::getPathType()>
    333a:	fab0 f080 	clz	r0, r0
    333e:	0940      	lsrs	r0, r0, #5
    3340:	bd08      	pop	{r3, pc}
    3342:	4770      	bx	lr

00003344 <mbed::FilePath::file()>:
    3344:	6843      	ldr	r3, [r0, #4]
    3346:	b14b      	cbz	r3, 335c <mbed::FilePath::file()+0x18>
    3348:	b510      	push	{r4, lr}
    334a:	4604      	mov	r4, r0
    334c:	4618      	mov	r0, r3
    334e:	f7ff ff71 	bl	3234 <mbed::FileBase::getPathType()>
    3352:	b928      	cbnz	r0, 3360 <mbed::FilePath::file()+0x1c>
    3354:	6860      	ldr	r0, [r4, #4]
    3356:	b118      	cbz	r0, 3360 <mbed::FilePath::file()+0x1c>
    3358:	3804      	subs	r0, #4
    335a:	bd10      	pop	{r4, pc}
    335c:	2000      	movs	r0, #0
    335e:	4770      	bx	lr
    3360:	2000      	movs	r0, #0
    3362:	bd10      	pop	{r4, pc}

00003364 <mbed::FilePath::exists()>:
    3364:	6840      	ldr	r0, [r0, #4]
    3366:	3000      	adds	r0, #0
    3368:	bf18      	it	ne
    336a:	2001      	movne	r0, #1
    336c:	4770      	bx	lr
    336e:	bf00      	nop

00003370 <mbed::I2C::I2C(PinName, PinName)>:
    3370:	b538      	push	{r3, r4, r5, lr}
    3372:	4604      	mov	r4, r0
    3374:	4b04      	ldr	r3, [pc, #16]	; (3388 <mbed::I2C::I2C(PinName, PinName)+0x18>)
    3376:	2500      	movs	r5, #0
    3378:	6005      	str	r5, [r0, #0]
    337a:	6043      	str	r3, [r0, #4]
    337c:	f7ff f80e 	bl	239c <i2c_init>
    3380:	4b02      	ldr	r3, [pc, #8]	; (338c <mbed::I2C::I2C(PinName, PinName)+0x1c>)
    3382:	4620      	mov	r0, r4
    3384:	601c      	str	r4, [r3, #0]
    3386:	bd38      	pop	{r3, r4, r5, pc}
    3388:	000186a0 	.word	0x000186a0
    338c:	100004e0 	.word	0x100004e0

00003390 <mbed::I2C::frequency(int)>:
    3390:	b510      	push	{r4, lr}
    3392:	4604      	mov	r4, r0
    3394:	6041      	str	r1, [r0, #4]
    3396:	f7ff f85b 	bl	2450 <i2c_frequency>
    339a:	4b01      	ldr	r3, [pc, #4]	; (33a0 <mbed::I2C::frequency(int)+0x10>)
    339c:	601c      	str	r4, [r3, #0]
    339e:	bd10      	pop	{r4, pc}
    33a0:	100004e0 	.word	0x100004e0

000033a4 <mbed::I2C::aquire()>:
    33a4:	b538      	push	{r3, r4, r5, lr}
    33a6:	4d05      	ldr	r5, [pc, #20]	; (33bc <mbed::I2C::aquire()+0x18>)
    33a8:	682a      	ldr	r2, [r5, #0]
    33aa:	4282      	cmp	r2, r0
    33ac:	d004      	beq.n	33b8 <mbed::I2C::aquire()+0x14>
    33ae:	4604      	mov	r4, r0
    33b0:	6841      	ldr	r1, [r0, #4]
    33b2:	f7ff f84d 	bl	2450 <i2c_frequency>
    33b6:	602c      	str	r4, [r5, #0]
    33b8:	bd38      	pop	{r3, r4, r5, pc}
    33ba:	bf00      	nop
    33bc:	100004e0 	.word	0x100004e0

000033c0 <mbed::I2C::write(int, char const*, int, bool)>:
    33c0:	e92d 41f0 	stmdb	sp!, {r4, r5, r6, r7, r8, lr}
    33c4:	461d      	mov	r5, r3
    33c6:	460f      	mov	r7, r1
    33c8:	4616      	mov	r6, r2
    33ca:	4680      	mov	r8, r0
    33cc:	b082      	sub	sp, #8
    33ce:	f89d 4020 	ldrb.w	r4, [sp, #32]
    33d2:	f7ff ffe7 	bl	33a4 <mbed::I2C::aquire()>
    33d6:	f084 0401 	eor.w	r4, r4, #1
    33da:	9400      	str	r4, [sp, #0]
    33dc:	4640      	mov	r0, r8
    33de:	4639      	mov	r1, r7
    33e0:	4632      	mov	r2, r6
    33e2:	462b      	mov	r3, r5
    33e4:	f7ff f8f2 	bl	25cc <i2c_write>
    33e8:	1a28      	subs	r0, r5, r0
    33ea:	bf18      	it	ne
    33ec:	2001      	movne	r0, #1
    33ee:	b002      	add	sp, #8
    33f0:	e8bd 81f0 	ldmia.w	sp!, {r4, r5, r6, r7, r8, pc}

000033f4 <mbed::I2C::read(int, char*, int, bool)>:
    33f4:	e92d 41f0 	stmdb	sp!, {r4, r5, r6, r7, r8, lr}
    33f8:	461d      	mov	r5, r3
    33fa:	460f      	mov	r7, r1
    33fc:	4616      	mov	r6, r2
    33fe:	4680      	mov	r8, r0
    3400:	b082      	sub	sp, #8
    3402:	f89d 4020 	ldrb.w	r4, [sp, #32]
    3406:	f7ff ffcd 	bl	33a4 <mbed::I2C::aquire()>
    340a:	f084 0401 	eor.w	r4, r4, #1
    340e:	9400      	str	r4, [sp, #0]
    3410:	4640      	mov	r0, r8
    3412:	4639      	mov	r1, r7
    3414:	4632      	mov	r2, r6
    3416:	462b      	mov	r3, r5
    3418:	f7ff f826 	bl	2468 <i2c_read>
    341c:	1a28      	subs	r0, r5, r0
    341e:	bf18      	it	ne
    3420:	2001      	movne	r0, #1
    3422:	b002      	add	sp, #8
    3424:	e8bd 81f0 	ldmia.w	sp!, {r4, r5, r6, r7, r8, pc}

00003428 <init_serial() [clone .part.0]>:
    3428:	4802      	ldr	r0, [pc, #8]	; (3434 <init_serial() [clone .part.0]+0xc>)
    342a:	4903      	ldr	r1, [pc, #12]	; (3438 <init_serial() [clone .part.0]+0x10>)
    342c:	4a03      	ldr	r2, [pc, #12]	; (343c <init_serial() [clone .part.0]+0x14>)
    342e:	f7ff bd73 	b.w	2f18 <serial_init>
    3432:	bf00      	nop
    3434:	100011ec 	.word	0x100011ec
    3438:	2009c002 	.word	0x2009c002
    343c:	2009c003 	.word	0x2009c003

00003440 <mbed::FileHandle::~FileHandle()>:
    3440:	4a08      	ldr	r2, [pc, #32]	; (3464 <mbed::FileHandle::~FileHandle()+0x24>)
    3442:	4b09      	ldr	r3, [pc, #36]	; (3468 <mbed::FileHandle::~FileHandle()+0x28>)
    3444:	b410      	push	{r4}
    3446:	6002      	str	r2, [r0, #0]
    3448:	f503 7180 	add.w	r1, r3, #256	; 0x100
    344c:	2400      	movs	r4, #0
    344e:	f853 2f04 	ldr.w	r2, [r3, #4]!
    3452:	4282      	cmp	r2, r0
    3454:	bf08      	it	eq
    3456:	601c      	streq	r4, [r3, #0]
    3458:	428b      	cmp	r3, r1
    345a:	d1f8      	bne.n	344e <mbed::FileHandle::~FileHandle()+0xe>
    345c:	f85d 4b04 	ldr.w	r4, [sp], #4
    3460:	4770      	bx	lr
    3462:	bf00      	nop
    3464:	00007050 	.word	0x00007050
    3468:	100004e0 	.word	0x100004e0

0000346c <_open>:
    346c:	b5f0      	push	{r4, r5, r6, r7, lr}
    346e:	460e      	mov	r6, r1
    3470:	b085      	sub	sp, #20
    3472:	4937      	ldr	r1, [pc, #220]	; (3550 <_open+0xe4>)
    3474:	4605      	mov	r5, r0
    3476:	f002 fd1a 	bl	5eae <strcmp>
    347a:	b928      	cbnz	r0, 3488 <_open+0x1c>
    347c:	4b35      	ldr	r3, [pc, #212]	; (3554 <_open+0xe8>)
    347e:	681b      	ldr	r3, [r3, #0]
    3480:	2b00      	cmp	r3, #0
    3482:	d042      	beq.n	350a <_open+0x9e>
    3484:	b005      	add	sp, #20
    3486:	bdf0      	pop	{r4, r5, r6, r7, pc}
    3488:	4628      	mov	r0, r5
    348a:	4933      	ldr	r1, [pc, #204]	; (3558 <_open+0xec>)
    348c:	f002 fd0f 	bl	5eae <strcmp>
    3490:	b930      	cbnz	r0, 34a0 <_open+0x34>
    3492:	4b30      	ldr	r3, [pc, #192]	; (3554 <_open+0xe8>)
    3494:	681b      	ldr	r3, [r3, #0]
    3496:	2b00      	cmp	r3, #0
    3498:	d042      	beq.n	3520 <_open+0xb4>
    349a:	2001      	movs	r0, #1
    349c:	b005      	add	sp, #20
    349e:	bdf0      	pop	{r4, r5, r6, r7, pc}
    34a0:	4628      	mov	r0, r5
    34a2:	492e      	ldr	r1, [pc, #184]	; (355c <_open+0xf0>)
    34a4:	f002 fd03 	bl	5eae <strcmp>
    34a8:	2800      	cmp	r0, #0
    34aa:	d034      	beq.n	3516 <_open+0xaa>
    34ac:	4b2c      	ldr	r3, [pc, #176]	; (3560 <_open+0xf4>)
    34ae:	2400      	movs	r4, #0
    34b0:	e002      	b.n	34b8 <_open+0x4c>
    34b2:	3401      	adds	r4, #1
    34b4:	2c40      	cmp	r4, #64	; 0x40
    34b6:	d03c      	beq.n	3532 <_open+0xc6>
    34b8:	f853 2f04 	ldr.w	r2, [r3, #4]!
    34bc:	2a00      	cmp	r2, #0
    34be:	d1f8      	bne.n	34b2 <_open+0x46>
    34c0:	782b      	ldrb	r3, [r5, #0]
    34c2:	2b3a      	cmp	r3, #58	; 0x3a
    34c4:	d03c      	beq.n	3540 <_open+0xd4>
    34c6:	4629      	mov	r1, r5
    34c8:	a802      	add	r0, sp, #8
    34ca:	f7ff fef5 	bl	32b8 <mbed::FilePath::FilePath(char const*)>
    34ce:	a802      	add	r0, sp, #8
    34d0:	f7ff ff48 	bl	3364 <mbed::FilePath::exists()>
    34d4:	b368      	cbz	r0, 3532 <_open+0xc6>
    34d6:	a802      	add	r0, sp, #8
    34d8:	f7ff ff2a 	bl	3330 <mbed::FilePath::isFile()>
    34dc:	bb20      	cbnz	r0, 3528 <_open+0xbc>
    34de:	a802      	add	r0, sp, #8
    34e0:	f7ff ff16 	bl	3310 <mbed::FilePath::fileSystem()>
    34e4:	4605      	mov	r5, r0
    34e6:	b320      	cbz	r0, 3532 <_open+0xc6>
    34e8:	6803      	ldr	r3, [r0, #0]
    34ea:	a802      	add	r0, sp, #8
    34ec:	689f      	ldr	r7, [r3, #8]
    34ee:	f7ff ff0d 	bl	330c <mbed::FilePath::fileName()>
    34f2:	4632      	mov	r2, r6
    34f4:	4601      	mov	r1, r0
    34f6:	4628      	mov	r0, r5
    34f8:	47b8      	blx	r7
    34fa:	4603      	mov	r3, r0
    34fc:	b1cb      	cbz	r3, 3532 <_open+0xc6>
    34fe:	4a19      	ldr	r2, [pc, #100]	; (3564 <_open+0xf8>)
    3500:	1ce0      	adds	r0, r4, #3
    3502:	f842 3024 	str.w	r3, [r2, r4, lsl #2]
    3506:	b005      	add	sp, #20
    3508:	bdf0      	pop	{r4, r5, r6, r7, pc}
    350a:	9001      	str	r0, [sp, #4]
    350c:	f7ff ff8c 	bl	3428 <init_serial() [clone .part.0]>
    3510:	9801      	ldr	r0, [sp, #4]
    3512:	b005      	add	sp, #20
    3514:	bdf0      	pop	{r4, r5, r6, r7, pc}
    3516:	4b0f      	ldr	r3, [pc, #60]	; (3554 <_open+0xe8>)
    3518:	681b      	ldr	r3, [r3, #0]
    351a:	b16b      	cbz	r3, 3538 <_open+0xcc>
    351c:	2002      	movs	r0, #2
    351e:	e7b1      	b.n	3484 <_open+0x18>
    3520:	f7ff ff82 	bl	3428 <init_serial() [clone .part.0]>
    3524:	2001      	movs	r0, #1
    3526:	e7ad      	b.n	3484 <_open+0x18>
    3528:	a802      	add	r0, sp, #8
    352a:	f7ff ff0b 	bl	3344 <mbed::FilePath::file()>
    352e:	4603      	mov	r3, r0
    3530:	e7e4      	b.n	34fc <_open+0x90>
    3532:	f04f 30ff 	mov.w	r0, #4294967295
    3536:	e7a5      	b.n	3484 <_open+0x18>
    3538:	f7ff ff76 	bl	3428 <init_serial() [clone .part.0]>
    353c:	2002      	movs	r0, #2
    353e:	e7a1      	b.n	3484 <_open+0x18>
    3540:	4628      	mov	r0, r5
    3542:	4909      	ldr	r1, [pc, #36]	; (3568 <_open+0xfc>)
    3544:	aa02      	add	r2, sp, #8
    3546:	f002 fc43 	bl	5dd0 <siscanf>
    354a:	9b02      	ldr	r3, [sp, #8]
    354c:	e7d6      	b.n	34fc <_open+0x90>
    354e:	bf00      	nop
    3550:	0000702c 	.word	0x0000702c
    3554:	100003f0 	.word	0x100003f0
    3558:	0000703c 	.word	0x0000703c
    355c:	00007034 	.word	0x00007034
    3560:	100004e0 	.word	0x100004e0
    3564:	100004e4 	.word	0x100004e4
    3568:	00007074 	.word	0x00007074

0000356c <_close>:
    356c:	2802      	cmp	r0, #2
    356e:	dd0a      	ble.n	3586 <_close+0x1a>
    3570:	4a07      	ldr	r2, [pc, #28]	; (3590 <_close+0x24>)
    3572:	1ec3      	subs	r3, r0, #3
    3574:	f852 0023 	ldr.w	r0, [r2, r3, lsl #2]
    3578:	2100      	movs	r1, #0
    357a:	f842 1023 	str.w	r1, [r2, r3, lsl #2]
    357e:	b120      	cbz	r0, 358a <_close+0x1e>
    3580:	6803      	ldr	r3, [r0, #0]
    3582:	685b      	ldr	r3, [r3, #4]
    3584:	4718      	bx	r3
    3586:	2000      	movs	r0, #0
    3588:	4770      	bx	lr
    358a:	f04f 30ff 	mov.w	r0, #4294967295
    358e:	4770      	bx	lr
    3590:	100004e4 	.word	0x100004e4

00003594 <_write>:
    3594:	2802      	cmp	r0, #2
    3596:	dc12      	bgt.n	35be <_write+0x2a>
    3598:	4b0e      	ldr	r3, [pc, #56]	; (35d4 <_write+0x40>)
    359a:	b570      	push	{r4, r5, r6, lr}
    359c:	681b      	ldr	r3, [r3, #0]
    359e:	460c      	mov	r4, r1
    35a0:	4616      	mov	r6, r2
    35a2:	b90b      	cbnz	r3, 35a8 <_write+0x14>
    35a4:	f7ff ff40 	bl	3428 <init_serial() [clone .part.0]>
    35a8:	19a5      	adds	r5, r4, r6
    35aa:	b136      	cbz	r6, 35ba <_write+0x26>
    35ac:	f814 1b01 	ldrb.w	r1, [r4], #1
    35b0:	4809      	ldr	r0, [pc, #36]	; (35d8 <_write+0x44>)
    35b2:	f7ff fbff 	bl	2db4 <serial_putc>
    35b6:	42ac      	cmp	r4, r5
    35b8:	d1f8      	bne.n	35ac <_write+0x18>
    35ba:	4630      	mov	r0, r6
    35bc:	bd70      	pop	{r4, r5, r6, pc}
    35be:	4b07      	ldr	r3, [pc, #28]	; (35dc <_write+0x48>)
    35c0:	3803      	subs	r0, #3
    35c2:	f853 0020 	ldr.w	r0, [r3, r0, lsl #2]
    35c6:	b110      	cbz	r0, 35ce <_write+0x3a>
    35c8:	6803      	ldr	r3, [r0, #0]
    35ca:	681b      	ldr	r3, [r3, #0]
    35cc:	4718      	bx	r3
    35ce:	f04f 30ff 	mov.w	r0, #4294967295
    35d2:	4770      	bx	lr
    35d4:	100003f0 	.word	0x100003f0
    35d8:	100011ec 	.word	0x100011ec
    35dc:	100004e4 	.word	0x100004e4

000035e0 <_read>:
    35e0:	2802      	cmp	r0, #2
    35e2:	dc0d      	bgt.n	3600 <_read+0x20>
    35e4:	4b0c      	ldr	r3, [pc, #48]	; (3618 <_read+0x38>)
    35e6:	b510      	push	{r4, lr}
    35e8:	681b      	ldr	r3, [r3, #0]
    35ea:	460c      	mov	r4, r1
    35ec:	b90b      	cbnz	r3, 35f2 <_read+0x12>
    35ee:	f7ff ff1b 	bl	3428 <init_serial() [clone .part.0]>
    35f2:	480a      	ldr	r0, [pc, #40]	; (361c <_read+0x3c>)
    35f4:	f7ff fb92 	bl	2d1c <serial_getc>
    35f8:	2301      	movs	r3, #1
    35fa:	7020      	strb	r0, [r4, #0]
    35fc:	4618      	mov	r0, r3
    35fe:	bd10      	pop	{r4, pc}
    3600:	4b07      	ldr	r3, [pc, #28]	; (3620 <_read+0x40>)
    3602:	3803      	subs	r0, #3
    3604:	f853 0020 	ldr.w	r0, [r3, r0, lsl #2]
    3608:	b110      	cbz	r0, 3610 <_read+0x30>
    360a:	6803      	ldr	r3, [r0, #0]
    360c:	689b      	ldr	r3, [r3, #8]
    360e:	4718      	bx	r3
    3610:	f04f 33ff 	mov.w	r3, #4294967295
    3614:	4618      	mov	r0, r3
    3616:	4770      	bx	lr
    3618:	100003f0 	.word	0x100003f0
    361c:	100011ec 	.word	0x100011ec
    3620:	100004e4 	.word	0x100004e4

00003624 <_isatty>:
    3624:	2802      	cmp	r0, #2
    3626:	dd07      	ble.n	3638 <_isatty+0x14>
    3628:	4b06      	ldr	r3, [pc, #24]	; (3644 <_isatty+0x20>)
    362a:	3803      	subs	r0, #3
    362c:	f853 0020 	ldr.w	r0, [r3, r0, lsl #2]
    3630:	b120      	cbz	r0, 363c <_isatty+0x18>
    3632:	6803      	ldr	r3, [r0, #0]
    3634:	68db      	ldr	r3, [r3, #12]
    3636:	4718      	bx	r3
    3638:	2001      	movs	r0, #1
    363a:	4770      	bx	lr
    363c:	f04f 30ff 	mov.w	r0, #4294967295
    3640:	4770      	bx	lr
    3642:	bf00      	nop
    3644:	100004e4 	.word	0x100004e4

00003648 <_lseek>:
    3648:	2802      	cmp	r0, #2
    364a:	dd07      	ble.n	365c <_lseek+0x14>
    364c:	4b06      	ldr	r3, [pc, #24]	; (3668 <_lseek+0x20>)
    364e:	3803      	subs	r0, #3
    3650:	f853 0020 	ldr.w	r0, [r3, r0, lsl #2]
    3654:	b120      	cbz	r0, 3660 <_lseek+0x18>
    3656:	6803      	ldr	r3, [r0, #0]
    3658:	691b      	ldr	r3, [r3, #16]
    365a:	4718      	bx	r3
    365c:	2000      	movs	r0, #0
    365e:	4770      	bx	lr
    3660:	f04f 30ff 	mov.w	r0, #4294967295
    3664:	4770      	bx	lr
    3666:	bf00      	nop
    3668:	100004e4 	.word	0x100004e4

0000366c <_fstat>:
    366c:	2802      	cmp	r0, #2
    366e:	b508      	push	{r3, lr}
    3670:	d804      	bhi.n	367c <_fstat+0x10>
    3672:	f44f 5300 	mov.w	r3, #8192	; 0x2000
    3676:	604b      	str	r3, [r1, #4]
    3678:	2000      	movs	r0, #0
    367a:	bd08      	pop	{r3, pc}
    367c:	f001 f8c4 	bl	4808 <__errno>
    3680:	2309      	movs	r3, #9
    3682:	6003      	str	r3, [r0, #0]
    3684:	f04f 30ff 	mov.w	r0, #4294967295
    3688:	bd08      	pop	{r3, pc}
    368a:	bf00      	nop

0000368c <mbed_main>:
    368c:	4770      	bx	lr
    368e:	bf00      	nop

00003690 <mbed_sdk_init>:
    3690:	4770      	bx	lr
    3692:	bf00      	nop

00003694 <__wrap_main>:
    3694:	b508      	push	{r3, lr}
    3696:	f7ff fffb 	bl	3690 <mbed_sdk_init>
    369a:	f7ff fff7 	bl	368c <mbed_main>
    369e:	e8bd 4008 	ldmia.w	sp!, {r3, lr}
    36a2:	f7fc bf8b 	b.w	5bc <main>
    36a6:	bf00      	nop

000036a8 <_sbrk>:
    36a8:	4a07      	ldr	r2, [pc, #28]	; (36c8 <_sbrk+0x20>)
    36aa:	6813      	ldr	r3, [r2, #0]
    36ac:	1819      	adds	r1, r3, r0
    36ae:	f3ef 8008 	mrs	r0, MSP
    36b2:	4281      	cmp	r1, r0
    36b4:	d202      	bcs.n	36bc <_sbrk+0x14>
    36b6:	4618      	mov	r0, r3
    36b8:	6011      	str	r1, [r2, #0]
    36ba:	4770      	bx	lr
    36bc:	4b03      	ldr	r3, [pc, #12]	; (36cc <_sbrk+0x24>)
    36be:	220c      	movs	r2, #12
    36c0:	601a      	str	r2, [r3, #0]
    36c2:	f04f 30ff 	mov.w	r0, #4294967295
    36c6:	4770      	bx	lr
    36c8:	1000017c 	.word	0x1000017c
    36cc:	100011f4 	.word	0x100011f4

000036d0 <_exit>:
    36d0:	4c0a      	ldr	r4, [pc, #40]	; (36fc <_exit+0x2c>)
    36d2:	b508      	push	{r3, lr}
    36d4:	6823      	ldr	r3, [r4, #0]
    36d6:	4605      	mov	r5, r0
    36d8:	6898      	ldr	r0, [r3, #8]
    36da:	f001 f9b7 	bl	4a4c <fflush>
    36de:	6823      	ldr	r3, [r4, #0]
    36e0:	68d8      	ldr	r0, [r3, #12]
    36e2:	f001 f9b3 	bl	4a4c <fflush>
    36e6:	f7fe fc55 	bl	1f94 <mbed_interface_connected>
    36ea:	b920      	cbnz	r0, 36f6 <_exit+0x26>
    36ec:	b905      	cbnz	r5, 36f0 <_exit+0x20>
    36ee:	e7fe      	b.n	36ee <_exit+0x1e>
    36f0:	f7fe fbc0 	bl	1e74 <mbed_die>
    36f4:	e7fb      	b.n	36ee <_exit+0x1e>
    36f6:	f7fe fca9 	bl	204c <semihost_exit>
    36fa:	e7f7      	b.n	36ec <_exit+0x1c>
    36fc:	100001e0 	.word	0x100001e0

00003700 <mbed::mbed_set_unbuffered_stream(__sFILE*)>:
    3700:	2100      	movs	r1, #0
    3702:	f002 bab0 	b.w	5c66 <setbuf>
    3706:	bf00      	nop

00003708 <mbed::mbed_getc(__sFILE*)>:
    3708:	f001 b9de 	b.w	4ac8 <fgetc>

0000370c <mbed::SerialBase::_irq_handler(unsigned long, SerialIrq)>:
    370c:	1c4a      	adds	r2, r1, #1
    370e:	eb02 0242 	add.w	r2, r2, r2, lsl #1
    3712:	eb00 02c2 	add.w	r2, r0, r2, lsl #3
    3716:	6893      	ldr	r3, [r2, #8]
    3718:	b153      	cbz	r3, 3730 <mbed::SerialBase::_irq_handler(unsigned long, SerialIrq)+0x24>
    371a:	eb01 0141 	add.w	r1, r1, r1, lsl #1
    371e:	00c9      	lsls	r1, r1, #3
    3720:	1842      	adds	r2, r0, r1
    3722:	68d2      	ldr	r2, [r2, #12]
    3724:	b11a      	cbz	r2, 372e <mbed::SerialBase::_irq_handler(unsigned long, SerialIrq)+0x22>
    3726:	4401      	add	r1, r0
    3728:	3110      	adds	r1, #16
    372a:	4610      	mov	r0, r2
    372c:	4718      	bx	r3
    372e:	4770      	bx	lr
    3730:	eb01 0341 	add.w	r3, r1, r1, lsl #1
    3734:	eb00 01c3 	add.w	r1, r0, r3, lsl #3
    3738:	68cb      	ldr	r3, [r1, #12]
    373a:	2b00      	cmp	r3, #0
    373c:	d0f7      	beq.n	372e <mbed::SerialBase::_irq_handler(unsigned long, SerialIrq)+0x22>
    373e:	4718      	bx	r3

00003740 <mbed::SerialBase::SerialBase(PinName, PinName)>:
    3740:	b570      	push	{r4, r5, r6, lr}
    3742:	4604      	mov	r4, r0
    3744:	4e0b      	ldr	r6, [pc, #44]	; (3774 <mbed::SerialBase::SerialBase(PinName, PinName)+0x34>)
    3746:	2300      	movs	r3, #0
    3748:	1d25      	adds	r5, r4, #4
    374a:	f44f 5016 	mov.w	r0, #9600	; 0x2580
    374e:	63e0      	str	r0, [r4, #60]	; 0x3c
    3750:	6063      	str	r3, [r4, #4]
    3752:	4628      	mov	r0, r5
    3754:	60a3      	str	r3, [r4, #8]
    3756:	60e3      	str	r3, [r4, #12]
    3758:	6223      	str	r3, [r4, #32]
    375a:	6263      	str	r3, [r4, #36]	; 0x24
    375c:	63a3      	str	r3, [r4, #56]	; 0x38
    375e:	6026      	str	r6, [r4, #0]
    3760:	f7ff fbda 	bl	2f18 <serial_init>
    3764:	4628      	mov	r0, r5
    3766:	4622      	mov	r2, r4
    3768:	4903      	ldr	r1, [pc, #12]	; (3778 <mbed::SerialBase::SerialBase(PinName, PinName)+0x38>)
    376a:	f7ff fac7 	bl	2cfc <serial_irq_handler>
    376e:	4620      	mov	r0, r4
    3770:	bd70      	pop	{r4, r5, r6, pc}
    3772:	bf00      	nop
    3774:	00007090 	.word	0x00007090
    3778:	0000370d 	.word	0x0000370d

0000377c <mbed::SerialBase::baud(int)>:
    377c:	b538      	push	{r3, r4, r5, lr}
    377e:	4604      	mov	r4, r0
    3780:	460d      	mov	r5, r1
    3782:	3004      	adds	r0, #4
    3784:	f7ff f9da 	bl	2b3c <serial_baud>
    3788:	63e5      	str	r5, [r4, #60]	; 0x3c
    378a:	bd38      	pop	{r3, r4, r5, pc}

0000378c <mbed::SerialBase::_base_getc()>:
    378c:	3004      	adds	r0, #4
    378e:	f7ff bac5 	b.w	2d1c <serial_getc>
    3792:	bf00      	nop

00003794 <mbed::SerialBase::_base_putc(int)>:
    3794:	b510      	push	{r4, lr}
    3796:	460c      	mov	r4, r1
    3798:	3004      	adds	r0, #4
    379a:	f7ff fb0b 	bl	2db4 <serial_putc>
    379e:	4620      	mov	r0, r4
    37a0:	bd10      	pop	{r4, pc}
    37a2:	bf00      	nop

000037a4 <mbed::Serial::_getc()>:
    37a4:	f7ff bff2 	b.w	378c <mbed::SerialBase::_base_getc()>

000037a8 <non-virtual thunk to mbed::Serial::_getc()>:
    37a8:	f1a0 0040 	sub.w	r0, r0, #64	; 0x40
    37ac:	f7ff bffa 	b.w	37a4 <mbed::Serial::_getc()>

000037b0 <mbed::Serial::_putc(int)>:
    37b0:	f7ff bff0 	b.w	3794 <mbed::SerialBase::_base_putc(int)>

000037b4 <non-virtual thunk to mbed::Serial::_putc(int)>:
    37b4:	f1a0 0040 	sub.w	r0, r0, #64	; 0x40
    37b8:	f7ff bffa 	b.w	37b0 <mbed::Serial::_putc(int)>

000037bc <mbed::Serial::Serial(PinName, PinName, char const*)>:
    37bc:	b538      	push	{r3, r4, r5, lr}
    37be:	4604      	mov	r4, r0
    37c0:	461d      	mov	r5, r3
    37c2:	f7ff ffbd 	bl	3740 <mbed::SerialBase::SerialBase(PinName, PinName)>
    37c6:	4629      	mov	r1, r5
    37c8:	f104 0040 	add.w	r0, r4, #64	; 0x40
    37cc:	f000 f844 	bl	3858 <mbed::Stream::Stream(char const*)>
    37d0:	4b05      	ldr	r3, [pc, #20]	; (37e8 <mbed::Serial::Serial(PinName, PinName, char const*)+0x2c>)
    37d2:	4620      	mov	r0, r4
    37d4:	f103 0108 	add.w	r1, r3, #8
    37d8:	f103 0220 	add.w	r2, r3, #32
    37dc:	3354      	adds	r3, #84	; 0x54
    37de:	6021      	str	r1, [r4, #0]
    37e0:	6422      	str	r2, [r4, #64]	; 0x40
    37e2:	6463      	str	r3, [r4, #68]	; 0x44
    37e4:	bd38      	pop	{r3, r4, r5, pc}
    37e6:	bf00      	nop
    37e8:	00007098 	.word	0x00007098

000037ec <mbed::Stream::close()>:
    37ec:	2000      	movs	r0, #0
    37ee:	4770      	bx	lr

000037f0 <mbed::Stream::write(void const*, unsigned int)>:
    37f0:	b5f8      	push	{r3, r4, r5, r6, r7, lr}
    37f2:	188e      	adds	r6, r1, r2
    37f4:	42b1      	cmp	r1, r6
    37f6:	460f      	mov	r7, r1
    37f8:	d00e      	beq.n	3818 <mbed::Stream::write(void const*, unsigned int)+0x28>
    37fa:	4605      	mov	r5, r0
    37fc:	460c      	mov	r4, r1
    37fe:	e001      	b.n	3804 <mbed::Stream::write(void const*, unsigned int)+0x14>
    3800:	42a6      	cmp	r6, r4
    3802:	d007      	beq.n	3814 <mbed::Stream::write(void const*, unsigned int)+0x24>
    3804:	682b      	ldr	r3, [r5, #0]
    3806:	4628      	mov	r0, r5
    3808:	6a5b      	ldr	r3, [r3, #36]	; 0x24
    380a:	f814 1b01 	ldrb.w	r1, [r4], #1
    380e:	4798      	blx	r3
    3810:	3001      	adds	r0, #1
    3812:	d1f5      	bne.n	3800 <mbed::Stream::write(void const*, unsigned int)+0x10>
    3814:	1be0      	subs	r0, r4, r7
    3816:	bdf8      	pop	{r3, r4, r5, r6, r7, pc}
    3818:	460c      	mov	r4, r1
    381a:	e7fb      	b.n	3814 <mbed::Stream::write(void const*, unsigned int)+0x24>

0000381c <mbed::Stream::read(void*, unsigned int)>:
    381c:	b5f8      	push	{r3, r4, r5, r6, r7, lr}
    381e:	188e      	adds	r6, r1, r2
    3820:	42b1      	cmp	r1, r6
    3822:	460f      	mov	r7, r1
    3824:	d00e      	beq.n	3844 <mbed::Stream::read(void*, unsigned int)+0x28>
    3826:	4605      	mov	r5, r0
    3828:	460c      	mov	r4, r1
    382a:	e003      	b.n	3834 <mbed::Stream::read(void*, unsigned int)+0x18>
